(lp0
(dp1
(I0
I77
I4
tp2
F593.5803465226376
s(I1
I38
I2
tp3
F762.6217709574364
s(I0
I10
I4
tp4
F536.9211546292663
s(I0
I67
I0
tp5
F479.30826036630566
s(I0
I37
I10
tp6
F223.22586209919865
s(I0
I17
I5
tp7
F511.1444602461139
s(I1
I30
I0
tp8
F707.5890978473954
s(I1
I47
I0
tp9
F655.7141012980186
s(I0
I49
I2
tp10
F396.5350720916801
s(I1
I33
I4
tp11
F767.650535508702
s(I1
I72
I6
tp12
F813.9345920729794
s(I1
I48
I1
tp13
F685.5875632280203
s(I1
I66
I6
tp14
F823.9369468771922
s(I0
I51
I9
tp15
F248.02377896250982
s(I0
I56
I0
tp16
F483.54158358729325
s(I1
I4
I4
tp17
F756.9445056579669
s(I1
I2
I0
tp18
F677.0028462519477
s(I0
I37
I2
tp19
F53.14901478552349
s(I1
I36
I1
tp20
F681.3178472193783
s(I1
I67
I1
tp21
F728.2006943413495
s(I0
I29
I0
tp22
F346.4287175323334
s(I0
I86
I4
tp23
F632.0283130654177
s(I1
I13
I2
tp24
F742.5723905986948
s(I0
I19
I4
tp25
F472.3256030676971
s(I1
I28
I3
tp26
F773.3460460083463
s(I0
I44
I0
tp27
F577.1872840134647
s(I0
I61
I5
tp28
F401.1118015902149
s(I0
I101
I4
tp29
F656.2001276889243
s(I1
I6
I4
tp30
F736.6762652415899
s(I1
I45
I1
tp31
F698.5172378351015
s(I0
I51
I1
tp32
F91.3107012735106
s(I1
I60
I4
tp33
F728.3557543802738
s(I0
I76
I3
tp34
F571.7882466715947
s(I0
I9
I5
tp35
F617.1298002783309
s(I1
I54
I0
tp36
F686.8951297172063
s(I1
I5
I7
tp37
F834.5793205797579
s(I0
I83
I2
tp38
F618.1356642494543
s(I1
I35
I4
tp39
F758.625559959622
s(I0
I53
I8
tp40
F457.12455666773036
s(I1
I40
I1
tp41
F750.6667456770266
s(I0
I1
I0
tp42
F569.8019940954113
s(I0
I80
I0
tp43
F497.4132481287889
s(I1
I82
I4
tp44
F755.9186657503985
s(I1
I78
I2
tp45
F660.3442480954945
s(I0
I39
I1
tp46
F387.8171906514933
s(I0
I8
I2
tp47
F526.6923793003901
s(I1
I58
I0
tp48
F705.1218824595707
s(I0
I14
I2
tp49
F384.12479531141724
s(I0
I71
I2
tp50
F583.598975989035
s(I0
I40
I5
tp51
F466.0586245498495
s(I0
I93
I2
tp52
F587.4677349010815
s(I0
I63
I4
tp53
F591.0114574953998
s(I1
I75
I0
tp54
F695.5239320774443
s(I0
I36
I5
tp55
F141.49910639190955
s(I1
I35
I2
tp56
F712.9343020183815
s(I0
I53
I0
tp57
F287.9790737138168
s(I0
I78
I4
tp58
F539.4374141459357
s(I1
I37
I2
tp59
F773.2940161881472
s(I1
I76
I0
tp60
F718.6279196658804
s(I0
I68
I0
tp61
F304.8588210394624
s(I1
I14
I3
tp62
F755.877104412677
s(I1
I29
I0
tp63
F684.1503582384046
s(I0
I60
I2
tp64
F114.91190190468656
s(I0
I33
I5
tp65
F413.1805018128929
s(I0
I105
I4
tp66
F688.3071258314736
s(I0
I50
I2
tp67
F51.60583267235271
s(I0
I75
I2
tp68
F491.3973160304119
s(I1
I32
I4
tp69
F806.9298737015513
s(I1
I6
I6
tp70
F774.7597466789022
s(I1
I46
I0
tp71
F646.8140611996182
s(I0
I57
I0
tp72
F475.3689061904293
s(I1
I4
I0
tp73
F682.8838447617613
s(I0
I72
I0
tp74
F610.9160553977645
s(I1
I74
I4
tp75
F782.4703994108844
s(I1
I1
I0
tp76
F658.5795301251587
s(I0
I95
I1
tp77
F581.515495452263
s(I0
I38
I2
tp78
F319.861230603588
s(I0
I60
I10
tp79
F284.46359053784914
s(I0
I13
I3
tp80
F528.5396256088222
s(I0
I30
I0
tp81
F345.78308477687347
s(I0
I70
I1
tp82
F559.3498852510376
s(I0
I87
I4
tp83
F618.6183421521258
s(I0
I45
I0
tp84
F289.0812777768315
s(I0
I102
I4
tp85
F643.4814690332289
s(I0
I35
I4
tp86
F342.41656493936364
s(I1
I44
I3
tp87
F727.0016260093035
s(I1
I70
I5
tp88
F839.4264692404512
s(I0
I77
I5
tp89
F613.6396997282386
s(I1
I14
I4
tp90
F774.7253600784728
s(I0
I67
I1
tp91
F500.72688453856875
s(I0
I84
I2
tp92
F671.2665984119753
s(I0
I37
I11
tp93
F244.48546801340805
s(I0
I17
I6
tp94
F530.6736543498998
s(I0
I42
I2
tp95
F612.810556934267
s(I0
I49
I3
tp96
F414.10378803340086
s(I0
I2
I0
tp97
F501.11647558369435
s(I1
I13
I5
tp98
F805.7694078182586
s(I1
I72
I7
tp99
F836.1314691239447
s(I0
I81
I0
tp100
F514.6006682297188
s(I0
I96
I0
tp101
F571.8986435739745
s(I1
I57
I0
tp102
F687.7605852875554
s(I1
I2
I1
tp103
F698.6672822704834
s(I0
I37
I3
tp104
F74.40862069973288
s(I0
I54
I0
tp105
F472.2338560267313
s(I0
I12
I4
tp106
F557.9262983907066
s(I0
I29
I1
tp107
F372.70000470485445
s(I0
I69
I0
tp108
F403.2171706190838
s(I0
I19
I5
tp109
F490.77177987252344
s(I1
I28
I0
tp110
F714.9287627816225
s(I0
I61
I6
tp111
F420.3938435016318
s(I0
I101
I5
tp112
F678.9704713541325
s(I1
I45
I0
tp113
F677.5004932433227
s(I0
I51
I6
tp114
F189.25637482913515
s(I0
I76
I2
tp115
F552.2239639361197
s(I1
I39
I4
tp116
F713.304740561902
s(I0
I9
I6
tp117
F639.7866595338326
s(I1
I54
I1
tp118
F708.2744688922078
s(I1
I5
I6
tp119
F813.1189127890882
s(I0
I36
I12
tp120
F9.433273759460633
s(I0
I58
I0
tp121
F488.70799879054965
s(I0
I1
I1
tp122
F548.1020954682322
s(I0
I73
I0
tp123
F604.7477968652172
s(I1
I78
I0
tp124
F633.4988926411222
s(I1
I0
I0
tp125
F638.8879928925833
s(I1
I82
I5
tp126
F775.2831266048195
s(I0
I8
I1
tp127
F513.0222573294625
s(I1
I58
I1
tp128
F722.9614673156442
s(I0
I31
I0
tp129
F413.9292119006932
s(I0
I40
I4
tp130
F447.3838899630503
s(I0
I93
I3
tp131
F608.4761425698784
s(I0
I46
I0
tp132
F362.78920282815045
s(I0
I63
I5
tp133
F609.3968997986369
s(I0
I103
I4
tp134
F623.2222091413739
s(I0
I36
I4
tp135
F160.36565391083082
s(I1
I35
I1
tp136
F690.0886730477612
s(I0
I53
I1
tp137
F309.122259083056
s(I1
I76
I1
tp138
F739.8347547464368
s(I1
I52
I0
tp139
F653.4648380572174
s(I1
I45
I4
tp140
F761.5674716104376
s(I0
I60
I1
tp141
F93.71794082554123
s(I1
I59
I6
tp142
F838.7132447212011
s(I0
I13
I4
tp143
F550.5842530245536
s(I0
I33
I6
tp144
F431.1607218465873
s(I0
I3
I0
tp145
F479.7996765673724
s(I0
I82
I0
tp146
F538.1145352335426
s(I0
I97
I0
tp147
F593.798943825989
s(I1
I56
I0
tp148
F688.3562700860365
s(I1
I8
I0
tp149
F662.1569946501601
s(I0
I37
I12
tp150
F265.74507392761745
s(I0
I55
I0
tp151
F480.3843547061609
s(I0
I64
I4
tp152
F599.4399466948288
s(I0
I60
I9
tp153
F263.26962945870383
s(I1
I66
I0
tp154
F705.886275690464
s(I0
I70
I0
tp155
F543.4369414806201
s(I0
I87
I5
tp156
F640.2989639988682
s(I1
I19
I0
tp157
F699.2879946761286
s(I0
I45
I1
tp158
F314.4940795610501
s(I0
I102
I7
tp159
F703.3133942583902
s(I1
I44
I0
tp160
F675.5649073848434
s(I0
I77
I6
tp161
F633.6990529338398
s(I1
I77
I2
tp162
F748.236059450948
s(I0
I67
I6
tp163
F607.8200053998842
s(I0
I84
I1
tp164
F655.0511957568993
s(I0
I37
I4
tp165
F95.66822661394228
s(I0
I17
I7
tp166
F550.2028484536859
s(I0
I59
I0
tp167
F487.2039899047452
s(I0
I12
I3
tp168
F534.2501053380523
s(I0
I49
I4
tp169
F431.6725039751217
s(I0
I74
I0
tp170
F412.4303406965681
s(I0
I19
I2
tp171
F435.4332494580445
s(I1
I72
I4
tp172
F769.5408379710486
s(I1
I7
I0
tp173
F640.3565080220911
s(I1
I39
I3
tp174
F694.0786990542636
s(I0
I36
I11
tp175
F28.299821278381927
s(I0
I16
I0
tp176
F396.5258500606348
s(I1
I2
I2
tp177
F720.3317182890189
s(I0
I47
I0
tp178
F376.0651668265568
s(I1
I11
I0
tp179
F657.9652080480445
s(I0
I29
I2
tp180
F398.9712918773754
s(I0
I69
I1
tp181
F423.5653704615957
s(I1
I78
I1
tp182
F646.9215703683084
s(I1
I28
I1
tp183
F734.4011905238638
s(I0
I61
I7
tp184
F439.6758854130488
s(I0
I101
I6
tp185
F701.740815019341
s(I1
I45
I3
tp186
F740.5507270186588
s(I0
I51
I7
tp187
F208.84550954026003
s(I1
I60
I2
tp188
F695.8371561280732
s(I0
I4
I0
tp189
F441.6765871128924
s(I0
I76
I1
tp190
F532.6596812006449
s(I0
I93
I4
tp191
F629.4845502386755
s(I1
I54
I2
tp192
F729.6538080672092
s(I1
I5
I1
tp193
F705.81687383574
s(I0
I83
I0
tp194
F567.7659541501308
s(I0
I36
I3
tp195
F179.2322014297521
s(I0
I98
I0
tp196
F591.4352180992314
s(I1
I63
I0
tp197
F637.2007871553232
s(I0
I1
I2
tp198
F526.4021968410531
s(I0
I73
I1
tp199
F627.7980360601322
s(I0
I18
I1
tp200
F436.70907829211353
s(I1
I82
I6
tp201
F794.6475874592405
s(I1
I32
I2
tp202
F768.1434197216929
s(I0
I8
I0
tp203
F499.3521353585348
s(I1
I58
I2
tp204
F740.8010521717177
s(I1
I65
I0
tp205
F683.2136182650227
s(I0
I71
I0
tp206
F545.1041708741361
s(I0
I40
I3
tp207
F428.7091553762511
s(I1
I18
I0
tp208
F664.6876117502577
s(I0
I63
I2
tp209
F554.2405728889256
s(I1
I4
I3
tp210
F738.4293404339155
s(I0
I17
I8
tp211
F569.7320425574718
s(I1
I35
I0
tp212
F667.2430440771409
s(I0
I53
I2
tp213
F330.2654444522952
s(I1
I27
I2
tp214
F762.3693171825676
s(I0
I38
I4
tp215
F354.65031357868065
s(I0
I60
I0
tp216
F72.52397974639592
s(I1
I59
I5
tp217
F816.7884516920216
s(I0
I13
I5
tp218
F572.6288804402851
s(I1
I61
I1
tp219
F763.1173438212122
s(I0
I3
I1
tp220
F466.0376224222667
s(I0
I75
I0
tp221
F443.7335517623291
s(I0
I20
I2
tp222
F335.0640481659036
s(I1
I6
I0
tp223
F660.5093023669655
s(I0
I35
I2
tp224
F299.23814396452497
s(I1
I70
I4
tp225
F819.5729849307301
s(I0
I10
I1
tp226
F487.63470476017574
s(I1
I56
I1
tp227
F706.4306491709556
s(I1
I15
I2
tp228
F698.9651347763397
s(I0
I17
I0
tp229
F413.49848972718394
s(I1
I77
I0
tp230
F716.0668135906714
s(I0
I32
I0
tp231
F411.7457028187134
s(I1
I33
I1
tp232
F719.5620741348478
s(I0
I64
I3
tp233
F579.1815067917186
s(I0
I60
I8
tp234
F242.07566837955852
s(I1
I66
I1
tp235
F725.5613875549187
s(I1
I10
I0
tp236
F682.1138651150221
s(I0
I30
I2
tp237
F395.743128100076
s(I0
I87
I2
tp238
F575.257098458641
s(I0
I45
I2
tp239
F339.90688134526874
s(I0
I102
I6
tp240
F683.3694191833365
s(I1
I44
I1
tp241
F692.7104802596634
s(I1
I51
I2
tp242
F709.3992000638575
s(I0
I5
I0
tp243
F442.89744072111796
s(I0
I67
I7
tp244
F629.2386295721473
s(I0
I84
I0
tp245
F638.8357931018232
s(I0
I37
I5
tp246
F116.92783252815167
s(I1
I59
I4
tp247
F794.863658662842
s(I0
I99
I0
tp248
F531.8516844914758
s(I0
I12
I2
tp249
F510.57391228539797
s(I0
I49
I5
tp250
F449.2412199168425
s(I1
I62
I0
tp251
F746.7449706036939
s(I0
I19
I3
tp252
F453.8794262628708
s(I1
I28
I6
tp253
F831.7633292350704
s(I1
I72
I5
tp254
F791.737715022014
s(I0
I34
I1
tp255
F278.7292915016244
s(I1
I39
I2
tp256
F674.8526575466252
s(I0
I9
I0
tp257
F503.8455040008219
s(I1
I5
I8
tp258
F856.0397283704275
s(I1
I64
I0
tp259
F658.9962686524628
s(I0
I36
I10
tp260
F47.16636879730319
s(I0
I88
I0
tp261
F511.1810855506473
s(I1
I2
I3
tp262
F741.9961543075545
s(I1
I17
I0
tp263
F641.1829019515642
s(I1
I34
I0
tp264
F646.726970509169
s(I0
I79
I2
tp265
F510.291523456968
s(I0
I69
I2
tp266
F443.9135703041076
s(I0
I86
I1
tp267
F580.7917887720058
s(I0
I61
I0
tp268
F304.7015920331303
s(I1
I45
I2
tp269
F719.5339824268801
s(I0
I51
I4
tp270
F150.07810540688533
s(I0
I40
I10
tp271
F559.4322974838456
s(I0
I76
I0
tp272
F513.09539846517
s(I1
I54
I3
tp273
F751.0331472422108
s(I1
I5
I0
tp274
F684.3564660450704
s(I0
I83
I1
tp275
F592.9508091997925
s(I0
I36
I2
tp276
F198.09874894867338
s(I1
I31
I4
tp277
F803.693596917301
s(I1
I40
I4
tp278
F806.1647143996373
s(I1
I70
I7
tp279
F879.133437859893
s(I0
I73
I2
tp280
F650.8482752550472
s(I0
I18
I0
tp281
F414.72562121423175
s(I0
I33
I0
tp282
F323.27940164442066
s(I1
I32
I3
tp283
F787.5366467116221
s(I0
I61
I8
tp284
F458.9579273244657
s(I1
I58
I3
tp285
F758.6406370277914
s(I1
I9
I0
tp286
F678.3621157922004
s(I1
I80
I2
tp287
F698.0617817066574
s(I0
I71
I1
tp288
F564.3515734315855
s(I0
I40
I2
tp289
F410.0344207894519
s(I0
I63
I3
tp290
F572.6260151921628
s(I0
I103
I2
tp291
F589.8572812809803
s(I0
I53
I3
tp292
F351.40862982153436
s(I0
I6
I0
tp293
F455.41386412334487
s(I0
I78
I1
tp294
F467.6908785121842
s(I1
I69
I2
tp295
F781.8684245244307
s(I1
I27
I1
tp296
F739.4986098737413
s(I0
I85
I0
tp297
F638.8434870267956
s(I0
I60
I7
tp298
F220.88170730041315
s(I0
I100
I0
tp299
F550.9423513254874
s(I0
I13
I6
tp300
F594.6735078560165
s(I1
I61
I0
tp301
F745.3627172359533
s(I1
I68
I2
tp302
F720.2566740761227
s(I0
I75
I1
tp303
F467.5654338963705
s(I0
I20
I1
tp304
F350.3816400073283
s(I1
I6
I1
tp305
F679.5510430856216
s(I0
I35
I3
tp306
F320.8273544519443
s(I0
I10
I0
tp307
F471.20588813714556
s(I1
I71
I0
tp308
F658.6344558874108
s(I1
I15
I1
tp309
F684.1810623975782
s(I0
I17
I1
tp310
F433.02768383097
s(I0
I89
I0
tp311
F522.4882186603112
s(I1
I16
I0
tp312
F632.2106326020181
s(I0
I104
I0
tp313
F592.3240788237674
s(I0
I19
I8
tp314
F546.1103102870024
s(I1
I33
I0
tp315
F703.5325870102297
s(I1
I72
I2
tp316
F725.147083869118
s(I0
I64
I2
tp317
F558.9230668886083
s(I1
I66
I2
tp318
F745.2364994193734
s(I1
I10
I1
tp319
F705.5645412777319
s(I0
I70
I2
tp320
F575.2628290214551
s(I0
I87
I3
tp321
F596.9377203053834
s(I0
I62
I0
tp322
F488.43795770550355
s(I0
I102
I1
tp323
F583.6495438080674
s(I0
I52
I4
tp324
F379.93207188162177
s(I1
I51
I1
tp325
F689.5144939560845
s(I0
I77
I0
tp326
F513.3429337002331
s(I0
I67
I4
tp327
F564.982757055358
s(I0
I37
I6
tp328
F138.18743844236107
s(I0
I12
I1
tp329
F486.8977192327436
s(I0
I49
I6
tp330
F466.80993585856334
s(I1
I62
I1
tp331
F767.2641039244339
s(I1
I69
I1
tp332
F761.2139769294525
s(I1
I13
I6
tp333
F826.83508022478
s(I0
I19
I0
tp334
F398.54089584839187
s(I1
I28
I7
tp335
F851.2357569773117
s(I0
I34
I0
tp336
F301.0387406720563
s(I1
I45
I5
tp337
F782.5842162022162
s(I1
I5
I4
tp338
F770.1980972077489
s(I1
I39
I1
tp339
F655.6266160389868
s(I0
I9
I1
tp340
F526.5023632563237
s(I1
I54
I4
tp341
F772.4124864172123
s(I0
I36
I9
tp342
F66.03291631622446
s(I1
I31
I3
tp343
F785.019542546094
s(I1
I53
I0
tp344
F665.697184221264
s(I1
I2
I4
tp345
F763.6605903260901
s(I1
I70
I8
tp346
F898.9869221696141
s(I0
I7
I0
tp347
F477.75427709935076
s(I1
I82
I0
tp348
F678.4608223327145
s(I0
I69
I3
tp349
F464.26177014661965
s(I0
I86
I0
tp350
F563.7129473408686
s(I0
I44
I4
tp351
F644.5282379032211
s(I0
I61
I1
tp352
F323.9836339445472
s(I0
I101
I0
tp353
F565.1187530280909
s(I0
I51
I5
tp354
F169.66724011801023
s(I0
I40
I9
tp355
F540.7575628970463
s(I1
I5
I3
tp356
F748.7376894170793
s(I1
I4
I2
tp357
F719.9141752098642
s(I0
I36
I1
tp358
F216.96529646759467
s(I1
I35
I6
tp359
F804.3168179008628
s(I0
I53
I4
tp360
F372.55181519077354
s(I0
I11
I0
tp361
F449.60983903741067
s(I1
I70
I0
tp362
F740.1590476918461
s(I0
I18
I3
tp363
F480.675992447877
s(I0
I90
I0
tp364
F567.5855527480213
s(I1
I23
I0
tp365
F733.8085000702326
s(I0
I33
I1
tp366
F341.2596216781151
s(I0
I105
I0
tp367
F613.3640933044163
s(I1
I32
I0
tp368
F729.3569657418348
s(I1
I28
I8
tp369
F870.708184719553
s(I1
I58
I4
tp370
F776.4802218838649
s(I0
I40
I1
tp371
F391.35968620265265
s(I0
I63
I0
tp372
F517.4696882824514
s(I0
I103
I3
tp373
F606.5397452111772
s(I1
I60
I3
tp374
F712.0964552541734
s(I1
I74
I0
tp375
F694.073032849464
s(I1
I27
I0
tp376
F716.6279025649151
s(I0
I78
I0
tp377
F443.775366634267
s(I0
I68
I4
tp378
F383.2448207357872
s(I0
I85
I1
tp379
F655.0742775318165
s(I0
I60
I6
tp380
F199.68774622126784
s(I1
I59
I3
tp381
F772.9388656336623
s(I1
I61
I3
tp382
F798.6265969917299
s(I0
I20
I0
tp383
F365.699231848753
s(I1
I6
I2
tp384
F698.5927838042777
s(I0
I102
I8
tp385
F723.2573693334441
s(I0
I35
I0
tp386
F256.05972298968624
s(I0
I52
I3
tp387
F357.1488294699719
s(I0
I10
I3
tp388
F520.4923380062361
s(I1
I60
I0
tp389
F663.3185578758727
s(I0
I63
I8
tp390
F664.5532267083482
s(I1
I13
I4
tp391
F784.7037354117374
s(I0
I17
I2
tp392
F452.5568779347559
s(I0
I89
I1
tp393
F539.0318990136493
s(I1
I33
I3
tp394
F751.6210483840839
s(I1
I72
I3
tp395
F747.3439609200833
s(I1
I48
I2
tp396
F702.8543155170838
s(I0
I24
I0
tp397
F399.97045247619366
s(I0
I64
I1
tp398
F538.6646269854982
s(I1
I66
I3
tp399
F764.9116112838282
s(I1
I10
I2
tp400
F729.0152174404417
s(I1
I81
I0
tp401
F655.6706853434948
s(I0
I51
I10
tp402
F267.61291367363475
s(I0
I87
I0
tp403
F531.8958547651563
s(I1
I44
I4
tp404
F744.1471988841236
s(I0
I102
I0
tp405
F563.7055687330137
s(I1
I51
I0
tp406
F669.6297878483115
s(I0
I77
I1
tp407
F533.4022869058342
s(I0
I67
I5
tp408
F586.4013812276211
s(I0
I37
I7
tp409
F159.44704435657044
s(I1
I36
I2
tp410
F698.3162589710766
s(I0
I12
I0
tp411
F463.22152618008926
s(I0
I69
I4
tp412
F484.60996998913157
s(I1
I62
I2
tp413
F787.7832372451741
s(I1
I69
I0
tp414
F740.5595293344746
s(I1
I13
I1
tp415
F721.5067181921736
s(I0
I19
I1
tp416
F416.9870726532182
s(I0
I91
I0
tp417
F569.3766284922601
s(I0
I44
I3
tp418
F627.692999430782
s(I1
I22
I0
tp419
F693.8894541682907
s(I0
I106
I0
tp420
F615.0387970016375
s(I0
I51
I2
tp421
F110.89983598463552
s(I1
I39
I0
tp422
F636.4005745313484
s(I0
I9
I2
tp423
F549.1592225118255
s(I0
I36
I8
tp424
F84.89946383514572
s(I1
I31
I2
tp425
F766.3454881748874
s(I1
I2
I5
tp426
F785.3250263446256
s(I1
I14
I6
tp427
F812.4218714100646
s(I1
I40
I2
tp428
F769.1660685845635
s(I0
I48
I0
tp429
F378.7798598215639
s(I1
I73
I0
tp430
F676.3391266354955
s(I0
I79
I0
tp431
F458.3739376550801
s(I1
I82
I1
tp432
F697.8252831871356
s(I1
I26
I0
tp433
F688.9877109696954
s(I1
I3
I0
tp434
F669.8984451962078
s(I0
I86
I3
tp435
F614.9494716342804
s(I0
I39
I2
tp436
F404.13026153751963
s(I1
I43
I0
tp437
F654.4397377725287
s(I0
I61
I2
tp438
F343.26567585596416
s(I0
I101
I1
tp439
F587.8890966932993
s(I0
I14
I1
tp440
F405.658330395321
s(I0
I40
I8
tp441
F522.0828283102471
s(I0
I76
I6
tp442
F630.4810948780195
s(I0
I21
I0
tp443
F340.67576865289146
s(I1
I5
I2
tp444
F727.2772816264097
s(I1
I60
I1
tp445
F679.5778570019729
s(I0
I36
I0
tp446
F235.83184398651593
s(I1
I35
I5
tp447
F781.4711889302423
s(I0
I53
I5
tp448
F393.6950005600128
s(I1
I37
I1
tp449
F746.7025956516586
s(I0
I68
I3
tp450
F363.648320811706
s(I1
I70
I1
tp451
F760.0125320015671
s(I1
I14
I0
tp452
F699.3323374152895
s(I0
I18
I2
tp453
F458.6925353699952
s(I0
I33
I2
tp454
F359.2398417118095
s(I0
I105
I1
tp455
F632.0998514361806
s(I0
I50
I1
tp456
F30.963499603411627
s(I1
I32
I1
tp457
F748.750192731764
s(I0
I25
I0
tp458
F372.77520248245315
s(I1
I58
I5
tp459
F794.3198067399385
s(I1
I80
I0
tp460
F653.6625793665199
s(I0
I40
I0
tp461
F372.68495161585344
s(I0
I63
I1
tp462
F535.8551305856886
s(I0
I103
I0
tp463
F556.4923534205866
s(I0
I0
I2
tp464
F588.3412118037555
s(I1
I74
I1
tp465
F716.172374489819
s(I1
I50
I0
tp466
F715.6806677974497
s(I1
I15
I0
tp467
F669.3969900188167
s(I0
I78
I3
tp468
F515.5219022680185
s(I0
I95
I2
tp469
F599.0117822639132
s(I0
I85
I2
tp470
F671.3050680368374
s(I0
I38
I1
tp471
F302.46668911604166
s(I0
I60
I5
tp472
F178.49378514212253
s(I1
I59
I2
tp473
F751.0140726044827
s(I0
I13
I0
tp474
F462.4057433616278
s(I1
I61
I2
tp475
F780.8719704064711
s(I1
I68
I0
tp476
F680.3541482326715
s(I0
I92
I0
tp477
F524.5815471063655
s(I1
I6
I3
tp478
F717.6345245229338
s(I1
I21
I0
tp479
F698.520390494464
s(I0
I35
I1
tp480
F277.64893347710563
s(I0
I107
I0
tp481
F644.1302925753308
s(I0
I52
I2
tp482
F334.365587058322
s(I1
I38
I0
tp483
F717.976726069028
s(I0
I10
I2
tp484
F504.0635213832059
s(I0
I67
I2
tp485
F522.1455087108318
s(I0
I37
I8
tp486
F180.70665027077987
s(I0
I17
I3
tp487
F472.08607203854194
s(I0
I89
I2
tp488
F555.5755793669874
s(I0
I42
I1
tp489
F597.8874087231536
s(I0
I49
I0
tp490
F361.39764020823844
s(I1
I33
I2
tp491
F735.5915612594658
s(I1
I72
I0
tp492
F680.7533297671873
s(I0
I64
I0
tp493
F518.406187082388
s(I1
I66
I4
tp494
F784.5867231482829
s(I1
I25
I0
tp495
F658.7574827527551
s(I0
I87
I1
tp496
F553.5764766118987
s(I1
I42
I0
tp497
F634.3374541875767
s(I0
I102
I3
tp498
F623.537493958175
s(I0
I77
I2
tp499
F553.4616401114353
s(I0
I22
I0
tp500
F370.6981757041121
s(I0
I37
I0
tp501
F10.629802957104697
s(I1
I67
I3
tp502
F771.0699937855
s(I0
I69
I5
tp503
F504.9581698316435
s(I1
I62
I3
tp504
F808.3023705659141
s(I1
I69
I3
tp505
F802.5228721194086
s(I1
I13
I0
tp506
F700.4410457856522
s(I0
I19
I6
tp507
F509.2179566773498
s(I1
I28
I5
tp508
F812.2909014928291
s(I1
I72
I8
tp509
F858.32834617491
s(I0
I44
I2
tp510
F610.857760958343
s(I1
I22
I1
tp511
F708.8907998653583
s(I0
I34
I2
tp512
F256.4198423311925
s(I0
I51
I3
tp513
F130.48897069576043
s(I0
I9
I3
tp514
F571.8160817673273
s(I0
I26
I0
tp515
F319.79935875123175
s(I1
I5
I5
tp516
F791.6585049984186
s(I1
I31
I1
tp517
F747.6714338036804
s(I0
I41
I0
tp518
F572.1361755918642
s(I1
I2
I6
tp519
F806.9894623631612
s(I1
I40
I3
tp520
F787.6653914921004
s(I1
I49
I0
tp521
F720.199630858134
s(I0
I79
I1
tp522
F484.33273055602405
s(I1
I82
I2
tp523
F717.1897440415565
s(I0
I86
I2
tp524
F597.870630203143
s(I0
I61
I3
tp525
F362.5477177673811
s(I0
I101
I2
tp526
F610.6594403585075
s(I0
I14
I0
tp527
F427.19186547922476
s(I0
I40
I7
tp528
F503.4080937234479
s(I0
I76
I5
tp529
F610.9168121425446
s(I0
I93
I0
tp530
F545.4509195634874
s(I0
I63
I6
tp531
F627.7823421018741
s(I1
I83
I0
tp532
F677.4077133563238
s(I1
I20
I0
tp533
F685.5159561718253
s(I0
I36
I7
tp534
F103.76601135406702
s(I0
I108
I0
tp535
F641.1187263376049
s(I0
I53
I6
tp536
F414.83818592925195
s(I1
I37
I0
tp537
F720.1111751151702
s(I1
I76
I2
tp538
F761.0415898269932
s(I0
I68
I2
tp539
F344.05182088762484
s(I1
I70
I2
tp540
F779.866016311288
s(I1
I14
I1
tp541
F718.1805930810854
s(I0
I33
I3
tp542
F377.2200617455039
s(I0
I105
I2
tp543
F650.835609567945
s(I0
I50
I0
tp544
F10.321166534470542
s(I1
I79
I0
tp545
F634.6751662795074
s(I0
I65
I0
tp546
F617.7549055491288
s(I1
I58
I6
tp547
F812.1593915960121
s(I1
I80
I1
tp548
F675.8621805365887
s(I1
I24
I0
tp549
F738.5705023066373
s(I1
I69
I4
tp550
F823.1773197143865
s(I1
I41
I0
tp551
F741.8967600523137
s(I0
I103
I1
tp552
F573.1748173507833
s(I0
I0
I1
tp553
F603.719748593265
s(I1
I74
I2
tp554
F738.2717161301741
s(I0
I78
I2
tp555
F491.60639039010135
s(I0
I23
I0
tp556
F399.90210990037707
s(I0
I85
I3
tp557
F687.5358585418583
s(I0
I38
I0
tp558
F285.0721476284953
s(I0
I60
I4
tp559
F157.29982406297722
s(I1
I59
I1
tp560
F729.0892795753032
s(I0
I13
I1
tp561
F484.4503707773593
s(I0
I87
I6
tp562
F661.9795858456106
s(I1
I68
I1
tp563
F700.3054111543971
s(I1
I12
I0
tp564
F675.9565817059138
s(I0
I52
I1
tp565
F311.582344646672
s(I1
I38
I1
tp566
F740.2992485132322
s(I1
I77
I1
tp567
F732.1514365208096
s(I0
I27
I0
tp568
F313.24137844242284
s(I0
I67
I3
tp569
F543.5641328830949
s(I1
I4
I1
tp570
F701.3990099858128
s(I0
I37
I9
tp571
F201.96625618498925
s(I0
I17
I4
tp572
F491.61526614232787
s(I0
I42
I0
tp573
F582.9642605120401
s(I0
I49
I1
tp574
F378.96635614995927
s(I1
I62
I4
tp575
F828.8215038866541
s(I1
I72
I1
tp576
F702.9502068181527
s(I1
I48
I0
tp577
F668.3208109389567
s(I1
I66
I5
tp578
F804.2618350127375
s(I0
I51
I8
tp579
F228.43464425138495
s(I0
I102
I2
tp580
F603.5935188831213
s(I0
I15
I0
tp581
F381.33791760772203
s(I1
I70
I6
tp582
F859.2799535501721
s(I0
I77
I3
tp583
F573.5209933170364
s(I0
I94
I0
tp584
F545.1088904819385
s(I1
I14
I5
tp585
F793.5736157442686
s(I0
I37
I1
tp586
F31.889408871314096
s(I1
I36
I0
tp587
F664.31943546768
s(I1
I67
I2
tp588
F749.6353440634248
s(I0
I69
I6
tp589
F525.3063696741555
s(I1
I67
I4
tp590
F792.5046435075752
s(I1
I13
I3
tp591
F763.638063005216
s(I0
I19
I7
tp592
F527.6641334821761
s(I1
I28
I2
tp593
F753.873618266105
s(I0
I44
I1
tp594
F594.0225224859039
s(I0
I61
I4
tp595
F381.829759678798
s(I1
I22
I2
tp596
F723.8921455624259
s(I1
I45
I6
tp597
F803.6009607939949
s(I0
I51
I0
tp598
F71.7215665623857
s(I0
I9
I4
tp599
F594.4729410228291
s(I0
I66
I0
tp600
F622.61859621967
s(I1
I31
I0
tp601
F728.9973794324737
s(I1
I40
I0
tp602
F732.1674227694897
s(I1
I82
I3
tp603
F736.5542048959776
s(I1
I28
I4
tp604
F792.8184737505878
s(I0
I39
I0
tp605
F371.504119765467
s(I0
I101
I3
tp606
F633.4297840237159
s(I0
I40
I6
tp607
F484.73335913664874
s(I0
I76
I4
tp608
F591.3525294070696
s(I0
I93
I1
tp609
F566.4593272322845
s(I0
I63
I7
tp610
F646.1677844051111
s(I0
I36
I6
tp611
F122.63255887298828
s(I1
I35
I3
tp612
F735.7799309890017
s(I0
I53
I7
tp613
F435.9813712984912
s(I0
I28
I0
tp614
F323.79118278682313
s(I0
I68
I1
tp615
F324.4553209635436
s(I0
I85
I4
tp616
F703.7666490468791
s(I1
I70
I3
tp617
F799.7195006210092
s(I1
I14
I2
tp618
F737.0288487468812
s(I0
I18
I4
tp619
F502.65944952575865
s(I0
I43
I0
tp620
F587.7220315022994
s(I0
I60
I3
tp621
F136.10586298383188
s(I0
I33
I4
tp622
F395.20028177919846
s(I0
I105
I3
tp623
F669.5713676997093
s(I1
I61
I4
tp624
F816.3812235769888
s(I0
I3
I2
tp625
F452.27556827716097
s(I1
I55
I0
tp626
F677.7622703366412
s(I1
I6
I5
tp627
F755.718005960246
s(I0
I67
I8
tp628
F650.6572537444102
s(I1
I56
I2
tp629
F724.5050282558745
s(I0
I0
I0
tp630
F619.0982853827744
s(I1
I74
I3
tp631
F760.3710577705292
s(I0
I95
I0
tp632
F564.019208640613
s(I0
I38
I3
tp633
F337.2557720911343
s(I1
I59
I0
tp634
F707.1644865461236
s(I0
I13
I2
tp635
F506.4949981930907
s(I0
I30
I1
tp636
F370.7631064384748
s(I1
I67
I0
tp637
F706.7660446192742
s(I0
I102
I5
tp638
F663.4254441082826
s(I1
I44
I2
tp639
F709.8560531344834
s(I0
I52
I0
tp640
F288.79910223502213
sa(dp641
g2
F49.01888555626525
sg3
F36.323109779045936
sg4
F43.75981944781385
sg5
F55.29200668187107
sg6
F77.40733690557688
sg7
F48.05386599026834
sg8
F36.37294359786044
sg9
F37.12173342638592
sg10
F71.61788793877272
sg11
F36.28011166933375
sg12
F34.59170505758842
sg13
F36.83335895310202
sg14
F35.24247803668248
sg15
F87.35350848748851
sg16
F81.98212273796318
sg17
F36.491778974228374
sg18
F36.885610084776204
sg19
F86.49138524897272
sg20
F36.87681780374074
sg21
F35.87386891622977
sg22
F54.574723923132304
sg23
F39.64442432852177
sg24
F35.79724990887596
sg25
F49.401843004091766
sg26
F35.987902259573076
sg27
F63.20542252397447
sg28
F59.60016097566143
sg29
F39.31083086543985
sg30
F36.274898744062845
sg31
F36.98884873040759
sg32
F94.57726575151146
sg33
F36.20724793518612
sg34
F50.874338881291486
sg35
F41.596929847480794
sg36
F36.30476963545982
sg37
F34.97431594674526
sg38
F40.23367088029576
sg39
F36.280280492286884
sg40
F82.30972271929369
sg41
F36.41399069990092
sg42
F38.935585569119745
sg43
F42.0216874663426
sg44
F35.677998160623616
sg45
F37.697435682103865
sg46
F70.6311782270708
sg47
F43.49384277466336
sg48
F36.338371056401435
sg49
F49.498083589089795
sg50
F51.271885758504546
sg51
F66.18595819589973
sg52
F40.66877870060113
sg53
F51.181635893363655
sg54
F36.91535899202788
sg55
F73.93771508819235
sg56
F36.591684442729985
sg57
F86.0210063905239
sg58
F52.97533425460834
sg59
F35.82950568596422
sg60
F36.669975477266014
sg61
F66.58947246983156
sg62
F36.41551897645829
sg63
F36.74205500645198
sg64
F88.52727432357233
sg65
F53.901861416433945
sg66
F37.813297877482974
sg67
F96.74484472504699
sg68
F52.99436785837367
sg69
F35.81593807116421
sg70
F36.02296752653186
sg71
F37.267623212255444
sg72
F82.03770343802069
sg73
F36.87173011616928
sg74
F50.793117491065296
sg75
F36.29297529100362
sg76
F37.209385246407166
sg77
F40.73113716175829
sg78
F72.64478653431748
sg79
F68.60289001352325
sg80
F43.616526763174356
sg81
F54.54699196468734
sg82
F51.60484476389608
sg83
F40.660463412936174
sg84
F74.34055625966374
sg85
F39.30779526572577
sg86
F61.009663937157946
sg87
F36.74424789307913
sg88
F34.26865848981256
sg89
F48.69921294646392
sg90
F36.33303929603019
sg91
F54.6751624476122
sg92
F39.79098684625848
sg93
F76.23174039198993
sg94
F47.66930145667934
sg95
F63.25254071089591
sg96
F71.39570497957094
sg97
F41.78926821687983
sg98
F34.897758961474224
sg99
F34.3738671232181
sg100
F41.48754544439393
sg101
F40.77202143417375
sg102
F36.547991486266724
sg103
F36.5905543007826
sg104
F85.56527822993803
sg105
F82.070663770821
sg106
F43.51767961193764
sg107
F54.27427966880933
sg108
F58.68659023811823
sg109
F49.23680885214672
sg110
F36.35731013226865
sg111
F58.38925333742818
sg112
F39.17020399975885
sg113
F37.14407419641542
sg114
F89.65219844499013
sg115
F51.503863430696384
sg116
F36.65690449591224
sg117
F41.511355405889624
sg118
F35.94044388671147
sg119
F35.18151668508205
sg120
F88.07601101578443
sg121
F81.96046020034407
sg122
F39.84353260828419
sg123
F50.905697607854684
sg124
F37.73878501413092
sg125
F37.54352841690554
sg126
F35.50667889478126
sg127
F43.52027726122891
sg128
F36.11830752049129
sg129
F53.87797504843231
sg130
F66.88421894395624
sg131
F40.59054329439539
sg132
F72.3913757726538
sg133
F50.86387369577535
sg134
F40.05647082275471
sg135
F71.82691288538419
sg136
F36.814743075225564
sg137
F85.31060276359153
sg138
F36.45904554686819
sg139
F37.098640679899255
sg140
F36.555841006927444
sg141
F91.40066711390406
sg142
F35.707265012854215
sg143
F43.363468338827964
sg144
F53.831972542304705
sg145
F42.788579358344904
sg146
F41.10095719871183
sg147
F40.7175130702766
sg148
F36.575093933670566
sg149
F37.38636133049738
sg150
F75.1194267671555
sg151
F82.04065660283936
sg152
F51.63269594920568
sg153
F70.82005261350758
sg154
F36.06506114489298
sg155
F51.842735601114825
sg156
F40.54377818889541
sg157
F37.134285953308776
sg158
F73.69757309682959
sg159
F38.740855883392115
sg160
F37.16473789724276
sg161
F48.53963894123936
sg162
F36.607138380275984
sg163
F51.48693671236526
sg164
F39.87646830761481
sg165
F84.69007677232426
sg166
F47.374520002044584
sg167
F81.9825350883727
sg168
F43.61564377256382
sg169
F71.2413316156868
sg170
F57.58101656158177
sg171
F49.683756553568486
sg172
F35.35776932047715
sg173
F37.58688232811098
sg174
F36.85076057736179
sg175
F86.17492715227702
sg176
F49.935497964681076
sg177
F36.350809662536456
sg178
F72.28846736217287
sg179
F37.393833133567284
sg180
F54.12426543610917
sg181
F57.97553587855148
sg182
F37.711852995438576
sg183
F36.21196852254939
sg184
F57.24514593428156
sg185
F39.09644514466089
sg186
F36.820327914149665
sg187
F88.82354492681216
sg188
F36.53306456279241
sg189
F44.75614522470532
sg190
F51.920827983455325
sg191
F40.53442735857482
sg192
F35.80056787406796
sg193
F36.48224939756434
sg194
F40.66997785469076
sg195
F69.73968117713298
sg196
F40.72394623343617
sg197
F37.65751417099227
sg198
F40.710894439427996
sg199
F50.67689276235811
sg200
F49.39885507213427
sg201
F35.421122588364625
sg202
F36.003817011543006
sg203
F43.57937159727644
sg204
F35.9352647820445
sg205
F36.53223438714476
sg206
F51.85995949901303
sg207
F67.65425442083853
sg208
F37.26716050274767
sg209
F52.05891102620954
sg210
F36.526180866257384
sg211
F47.22735855381995
sg212
F37.09968549766461
sg213
F84.68792676148726
sg214
F36.22015719796736
sg215
F71.2485128359213
sg216
F94.36850211753627
sg217
F35.7619519073129
sg218
F43.195036590604225
sg219
F35.90481383054506
sg220
F43.49201902714211
sg221
F55.39084031243378
sg222
F54.0969729684409
sg223
F37.25585126737486
sg224
F61.33495232139275
sg225
F34.48517493738559
sg226
F43.943045329302386
sg227
F36.421970073813924
sg228
F37.22434777433791
sg229
F49.63569268989568
sg230
F36.79016156186433
sg231
F53.88667519004236
sg232
F36.44182934961885
sg233
F51.898729118831724
sg234
F73.11039194979016
sg235
F35.83668806524695
sg236
F37.279060527871714
sg237
F53.94178930255415
sg238
F40.9087809007857
sg239
F72.8377161263611
sg240
F38.866653379776785
sg241
F37.085429628984016
sg242
F36.68552193253946
sg243
F44.819691733621426
sg244
F51.06089414980533
sg245
F40.04761486689482
sg246
F83.86526019037572
sg247
F35.809597783685874
sg248
F40.75377546838896
sg249
F43.81179262434203
sg250
F71.12127852946992
sg251
F36.08309084887748
sg252
F49.528504041647835
sg253
F35.552404112617985
sg254
F34.919325869197785
sg255
F58.554914378457276
sg256
F37.07353147322216
sg257
F43.32079790479172
sg258
F34.87086901893314
sg259
F37.20524397872497
sg260
F84.2995241218058
sg261
F41.573963989457695
sg262
F36.16601376638247
sg263
F37.45949640688604
sg264
F37.400171184956385
sg265
F44.198567258439745
sg266
F56.80722626579105
sg267
F40.21241862175788
sg268
F66.70795562840864
sg269
F36.8999494505778
sg270
F91.49969669628882
sg271
F63.747702349465555
sg272
F52.27653407711717
sg273
F35.713393893486305
sg274
F36.789176311658125
sg275
F40.41731290045629
sg276
F67.67533502402476
sg277
F35.197648428359194
sg278
F36.27042088838713
sg279
F33.83908103190718
sg280
F50.573177291676174
sg281
F49.67791314133292
sg282
F55.30600026497493
sg283
F35.9027052303104
sg284
F56.166529849954856
sg285
F35.789055224624605
sg286
F37.307158719799304
sg287
F37.22012161956903
sg288
F51.59600242374231
sg289
F68.49689096627831
sg290
F51.57977325975939
sg291
F40.13866388053398
sg292
F84.15233806653741
sg293
F44.32844735992571
sg294
F54.46643009184311
sg295
F34.262503914444046
sg296
F36.27998401199642
sg297
F39.96389358331225
sg298
F75.47627457748436
sg299
F40.35210910043477
sg300
F43.110902812807964
sg301
F36.050107439843764
sg302
F35.41238988622035
sg303
F54.12120154077468
sg304
F52.50388740030587
sg305
F37.002488010947765
sg306
F61.12385967637556
sg307
F44.05205511824834
sg308
F37.334664415329335
sg309
F37.27515690566536
sg310
F49.16979226929479
sg311
F41.484440082038184
sg312
F37.649583777716124
sg313
F38.51299158877158
sg314
F48.579739176753016
sg315
F36.54152318761358
sg316
F36.511796597712674
sg317
F52.26371513423091
sg318
F35.652994781216854
sg319
F37.028736415303534
sg320
F51.48603642537952
sg321
F40.75883032110365
sg322
F54.91422306155114
sg323
F39.8786882747792
sg324
F84.0482640837669
sg325
F36.778957438549384
sg326
F51.927560129007404
sg327
F52.987443064771654
sg328
F82.76287532855665
sg329
F44.10656772476785
sg330
F71.03524275968819
sg331
F35.96480760965013
sg332
F34.543672627687144
sg333
F34.798290032365344
sg334
F50.01010056704627
sg335
F35.37979053739214
sg336
F56.47491560818276
sg337
F36.34929383845042
sg338
F35.88454984704101
sg339
F37.32539197986142
sg340
F42.80115654109981
sg341
F35.66274173011156
sg342
F82.44924303893052
sg343
F35.27671078828897
sg344
F36.89885240206654
sg345
F36.03588727048118
sg346
F33.75338323234384
sg347
F43.84818889967626
sg348
F37.23231271667065
sg349
F55.455229107886296
sg350
F40.5925853721277
sg351
F61.6080229877302
sg352
F65.1406809129751
sg353
F40.15264727084849
sg354
F90.54403950937758
sg355
F64.09681518181618
sg356
F36.03036137947646
sg357
F36.60091091201612
sg358
F65.63319699669758
sg359
F35.91761991967967
sg360
F83.70328591573514
sg361
F44.50182684396814
sg362
F34.95716524740881
sg363
F48.94954463949952
sg364
F41.316746916126895
sg365
F36.77798650115479
sg366
F54.88348468596248
sg367
F38.355379963446
sg368
F36.14366163274943
sg369
F35.2935890196295
sg370
F35.67952898532873
sg371
F69.41303282959633
sg372
F53.26332587728037
sg373
F40.08854105876971
sg374
F36.35995411143502
sg375
F36.93431378683837
sg376
F36.399889062703096
sg377
F55.468234797029886
sg378
F59.83326462004196
sg379
F39.625287621754076
sg380
F77.92014510885423
sg381
F35.89378333249152
sg382
F35.72347294042569
sg383
F51.09017752013841
sg384
F36.46976966032491
sg385
F38.67800819563491
sg386
F61.752498989696335
sg387
F84.44583647386948
sg388
F43.80725083560931
sg389
F36.94089837631321
sg390
F50.38847460487116
sg391
F35.09698114595769
sg392
F48.77920048157454
sg393
F41.41120999611321
sg394
F36.332855166507
sg395
F35.90842688905123
sg396
F36.6579565515293
sg397
F53.796050113682746
sg398
F52.72834989693116
sg399
F35.51375227112602
sg400
F36.89803122931275
sg401
F37.60047881799262
sg402
F86.71108947356372
sg403
F41.26557856629483
sg404
F36.67480134593825
sg405
F40.14923932605765
sg406
F36.966066424388956
sg407
F50.95165833733288
sg408
F52.128226024072355
sg409
F81.32385042884519
sg410
F36.658306395971465
sg411
F44.33095230673835
sg412
F54.209904840414055
sg413
F35.761580843321575
sg414
F34.91976502038912
sg415
F36.300298165665396
sg416
F49.86463090387404
sg417
F41.305546346327745
sg418
F61.7671457188171
sg419
F37.11141570063934
sg420
F38.27293081336494
sg421
F93.60519910809045
sg422
F37.60653971870428
sg423
F42.369748506207884
sg424
F80.62353250475675
sg425
F35.4350131011707
sg426
F35.96023347254921
sg427
F36.147052510369726
sg428
F36.34237364483413
sg429
F72.25660197370438
sg430
F37.095708329140045
sg431
F44.4392849854708
sg432
F36.71171402699727
sg433
F36.65076477876231
sg434
F37.01437850069172
sg435
F39.738902326480286
sg436
F70.54396328979126
sg437
F37.29490682476002
sg438
F63.647930404479844
sg439
F39.90196735227163
sg440
F47.66405524288792
sg441
F64.51471152694319
sg442
F49.93494769878588
sg443
F54.39872101356971
sg444
F36.22943608496704
sg445
F36.72667643441042
sg446
F63.58625439873197
sg447
F36.03837145891147
sg448
F83.34030853437321
sg449
F35.99269915699884
sg450
F61.41149173919933
sg451
F34.76296258946748
sg452
F36.91356767450225
sg453
F49.21566785984317
sg454
F54.53222313632778
sg455
F38.139028749001376
sg456
F98.48644898218973
sg457
F36.079090782096976
sg458
F54.06216945786748
sg459
F35.60657380117999
sg460
F37.574957541977795
sg461
F70.40366314006948
sg462
F52.61980162624202
sg463
F40.32919975776611
sg464
F38.41655625428359
sg465
F36.782394813574875
sg466
F36.59716602953024
sg467
F37.3095270782106
sg468
F53.22288533174579
sg469
F40.68026533732191
sg470
F39.37196879511487
sg471
F73.41851449009484
sg472
F80.44452873927624
sg473
F36.01459445562676
sg474
F44.29066784517789
sg475
F35.79597249770674
sg476
F36.575702947683986
sg477
F41.29241159388251
sg478
F36.35454390750188
sg479
F37.11245411708811
sg480
F61.505858312794686
sg481
F38.0579911857624
sg482
F85.00523090638339
sg483
F36.49671715245475
sg484
F43.865969280279266
sg485
F54.174846884397596
sg486
F79.95233557354766
sg487
F48.4633190949306
sg488
F41.33911739505918
sg489
F63.3179829951556
sg490
F72.26659133920312
sg491
F36.37229252404732
sg492
F36.99461656027266
sg493
F53.293519304001535
sg494
F35.41878693280227
sg495
F37.12741096106528
sg496
F41.11050492684546
sg497
F37.513345021192876
sg498
F39.46546679597254
sg499
F50.14326006177568
sg500
F53.9626477573919
sg501
F88.4985504689725
sg502
F35.63134004455984
sg503
F53.068857975315325
sg504
F35.56891275816475
sg505
F34.07548624802467
sg506
F36.9071087562222
sg507
F48.985269356584965
sg508
F35.731932143180934
sg509
F34.26512071898013
sg510
F62.085802167130716
sg511
F36.93635172871281
sg512
F60.89912778575765
sg513
F92.51984356012302
sg514
F42.025684465105755
sg515
F55.18871606827902
sg516
F35.49308590975816
sg517
F35.672910951965235
sg518
F63.57507515589925
sg519
F35.8773288983378
sg520
F36.29715751562565
sg521
F36.56969810440881
sg522
F44.278758003317236
sg523
F36.2797889429257
sg524
F39.92808347617997
sg525
F62.22799632145293
sg526
F39.70699068544221
sg527
F45.85040286611115
sg528
F65.00183983737129
sg529
F50.09110568991171
sg530
F40.97038245781779
sg531
F50.62598765617102
sg532
F37.525714816150696
sg533
F37.18043089800734
sg534
F78.81892210376144
sg535
F38.088916641212265
sg536
F82.97030648137746
sg537
F36.31982940011223
sg538
F36.35373312043502
sg539
F63.06228694816585
sg540
F34.64140819654936
sg541
F36.705617204596265
sg542
F54.251759580873355
sg543
F37.97604662369463
sg544
F92.1713681980392
sg545
F37.70956075474236
sg546
F51.51682807243337
sg547
F35.57011489405944
sg548
F37.338275235909855
sg549
F36.75635586608571
sg550
F33.98210571651203
sg551
F36.52844117569228
sg552
F40.21886341515487
sg553
F38.02381655380796
sg554
F36.63585087103528
sg555
F53.71914427977487
sg556
F53.79654410251973
sg557
F39.203391874874114
sg558
F74.24334282117404
sg559
F83.0520338564658
sg560
F36.17215442727333
sg561
F44.0172093998145
sg562
F40.45900605161056
sg563
F35.97098892548087
sg564
F37.173437074746275
sg565
F85.40625368528099
sg566
F36.416507543135474
sg567
F36.66814352137199
sg568
F55.62567357894607
sg569
F53.78999367426725
sg570
F36.716051620124475
sg571
F78.64719221562888
sg572
F48.221664304280964
sg573
F63.448935271509654
sg574
F71.90809151630197
sg575
F35.47270916982321
sg576
F36.72428940003361
sg577
F37.06180335187458
sg578
F35.31620080636109
sg579
F88.05749491358893
sg580
F39.650845434427836
sg581
F50.2655480081823
sg582
F34.01069421256631
sg583
F49.49970769396744
sg584
F40.98441698440097
sg585
F36.22976938271306
sg586
F87.46894880055487
sg587
F37.12964697827346
sg588
F35.72617198523414
sg589
F52.21833499430569
sg590
F35.58923276879983
sg591
F35.3965260510776
sg592
F48.714790755656175
sg593
F36.09577342137683
sg594
F62.56481536645587
sg595
F60.87925418806819
sg596
F36.814829600508595
sg597
F36.24616696148669
sg598
F95.44108875491388
sg599
F41.76825513986448
sg600
F51.467678339528895
sg601
F35.99093871630124
sg602
F36.51206070705247
sg603
F35.93549419106024
sg604
F35.83803438183982
sg605
F70.80571592723146
sg606
F39.53472094136435
sg607
F65.55872285976534
sg608
F50.40391001388226
sg609
F40.7953416226656
sg610
F50.4676042005088
sg611
F76.07278045979103
sg612
F36.430134649481346
sg613
F82.59101188498971
sg614
F55.15686988159618
sg615
F64.78760094137327
sg616
F39.11919402599884
sg617
F34.54883813018915
sg618
F36.53966426480322
sg619
F48.757031229495354
sg620
F63.47778450503938
sg621
F85.74535473566435
sg622
F54.04172989989116
sg623
F37.867521540931925
sg624
F35.687241553699565
sg625
F44.20177477219868
sg626
F36.721050614033
sg627
F36.107101551818644
sg628
F50.84831721903651
sg629
F36.345488613484406
sg630
F37.79792976656947
sg631
F36.40714742833287
sg632
F40.83294442728889
sg633
F71.92162042770593
sg634
F36.36662401968529
sg635
F43.80134467046556
sg636
F54.17651023273507
sg637
F36.07464938872065
sg638
F39.055605092465065
sg639
F36.88327248972034
sg640
F86.01323524142468
sa.