(lp0
(dp1
(I0
I77
I4
tp2
F593.5803465226376
s(I1
I38
I2
tp3
F762.6217709574364
s(I0
I10
I4
tp4
F536.9211546292663
s(I0
I67
I0
tp5
F479.30826036630566
s(I0
I37
I10
tp6
F223.22586209919865
s(I0
I17
I5
tp7
F511.1444602461139
s(I1
I30
I0
tp8
F707.5890978473954
s(I1
I47
I0
tp9
F655.7141012980186
s(I0
I49
I2
tp10
F396.5350720916801
s(I1
I33
I4
tp11
F767.650535508702
s(I1
I72
I6
tp12
F813.9345920729794
s(I1
I48
I1
tp13
F685.5875632280203
s(I1
I66
I6
tp14
F823.9369468771922
s(I0
I51
I9
tp15
F248.02377896250982
s(I0
I56
I0
tp16
F483.54158358729325
s(I1
I4
I4
tp17
F756.9445056579669
s(I1
I2
I0
tp18
F677.0028462519477
s(I0
I37
I2
tp19
F53.14901478552349
s(I1
I36
I1
tp20
F681.3178472193783
s(I1
I67
I1
tp21
F728.2006943413495
s(I0
I29
I0
tp22
F346.4287175323334
s(I0
I86
I4
tp23
F632.0283130654177
s(I1
I13
I2
tp24
F742.5723905986948
s(I0
I19
I4
tp25
F472.3256030676971
s(I1
I28
I3
tp26
F773.3460460083463
s(I0
I44
I0
tp27
F577.1872840134647
s(I0
I61
I5
tp28
F401.1118015902149
s(I0
I101
I4
tp29
F656.2001276889243
s(I1
I6
I4
tp30
F736.6762652415899
s(I1
I45
I1
tp31
F698.5172378351015
s(I0
I51
I1
tp32
F91.3107012735106
s(I1
I60
I4
tp33
F728.3557543802738
s(I0
I76
I3
tp34
F571.7882466715947
s(I0
I9
I5
tp35
F617.1298002783309
s(I1
I54
I0
tp36
F686.8951297172063
s(I1
I5
I7
tp37
F834.5793205797579
s(I0
I83
I2
tp38
F618.1356642494543
s(I1
I35
I4
tp39
F758.625559959622
s(I0
I53
I8
tp40
F457.12455666773036
s(I1
I40
I1
tp41
F750.6667456770266
s(I0
I1
I0
tp42
F569.8019940954113
s(I0
I80
I0
tp43
F497.4132481287889
s(I1
I82
I4
tp44
F755.9186657503985
s(I1
I78
I2
tp45
F660.3442480954945
s(I0
I39
I1
tp46
F387.8171906514933
s(I0
I8
I2
tp47
F526.6923793003901
s(I1
I58
I0
tp48
F705.1218824595707
s(I0
I14
I2
tp49
F384.12479531141724
s(I0
I71
I2
tp50
F583.598975989035
s(I0
I40
I5
tp51
F466.0586245498495
s(I0
I93
I2
tp52
F587.4677349010815
s(I0
I63
I4
tp53
F591.0114574953998
s(I1
I75
I0
tp54
F695.5239320774443
s(I0
I36
I5
tp55
F141.49910639190955
s(I1
I35
I2
tp56
F712.9343020183815
s(I0
I53
I0
tp57
F287.9790737138168
s(I0
I78
I4
tp58
F539.4374141459357
s(I1
I37
I2
tp59
F773.2940161881472
s(I1
I76
I0
tp60
F718.6279196658804
s(I0
I68
I0
tp61
F304.8588210394624
s(I1
I14
I3
tp62
F755.877104412677
s(I1
I29
I0
tp63
F684.1503582384046
s(I0
I60
I2
tp64
F114.91190190468656
s(I0
I33
I5
tp65
F413.1805018128929
s(I0
I105
I4
tp66
F688.3071258314736
s(I0
I50
I2
tp67
F51.60583267235271
s(I0
I75
I2
tp68
F491.3973160304119
s(I1
I32
I4
tp69
F806.9298737015513
s(I1
I6
I6
tp70
F774.7597466789022
s(I1
I46
I0
tp71
F646.8140611996182
s(I0
I57
I0
tp72
F475.3689061904293
s(I1
I4
I0
tp73
F682.8838447617613
s(I0
I72
I0
tp74
F610.9160553977645
s(I1
I74
I4
tp75
F782.4703994108844
s(I1
I1
I0
tp76
F658.5795301251587
s(I0
I95
I1
tp77
F581.515495452263
s(I0
I38
I2
tp78
F319.861230603588
s(I0
I60
I10
tp79
F284.46359053784914
s(I0
I13
I3
tp80
F528.5396256088222
s(I0
I30
I0
tp81
F345.78308477687347
s(I0
I70
I1
tp82
F559.3498852510376
s(I0
I87
I4
tp83
F618.6183421521258
s(I0
I45
I0
tp84
F289.0812777768315
s(I0
I102
I4
tp85
F643.4814690332289
s(I0
I35
I4
tp86
F342.41656493936364
s(I1
I44
I3
tp87
F727.0016260093035
s(I1
I70
I5
tp88
F839.4264692404512
s(I0
I77
I5
tp89
F613.6396997282386
s(I1
I14
I4
tp90
F774.7253600784728
s(I0
I67
I1
tp91
F500.72688453856875
s(I0
I84
I2
tp92
F671.2665984119753
s(I0
I37
I11
tp93
F244.48546801340805
s(I0
I17
I6
tp94
F530.6736543498998
s(I0
I42
I2
tp95
F612.810556934267
s(I0
I49
I3
tp96
F414.10378803340086
s(I0
I2
I0
tp97
F501.11647558369435
s(I1
I13
I5
tp98
F805.7694078182586
s(I1
I72
I7
tp99
F836.1314691239447
s(I0
I81
I0
tp100
F514.6006682297188
s(I0
I96
I0
tp101
F571.8986435739745
s(I1
I57
I0
tp102
F687.7605852875554
s(I1
I2
I1
tp103
F698.6672822704834
s(I0
I37
I3
tp104
F74.40862069973288
s(I0
I54
I0
tp105
F472.2338560267313
s(I0
I12
I4
tp106
F557.9262983907066
s(I0
I29
I1
tp107
F372.70000470485445
s(I0
I69
I0
tp108
F403.2171706190838
s(I0
I19
I5
tp109
F490.77177987252344
s(I1
I28
I0
tp110
F714.9287627816225
s(I0
I61
I6
tp111
F420.3938435016318
s(I0
I101
I5
tp112
F678.9704713541325
s(I1
I45
I0
tp113
F677.5004932433227
s(I0
I51
I6
tp114
F189.25637482913515
s(I0
I76
I2
tp115
F552.2239639361197
s(I1
I39
I4
tp116
F713.304740561902
s(I0
I9
I6
tp117
F639.7866595338326
s(I1
I54
I1
tp118
F708.2744688922078
s(I1
I5
I6
tp119
F813.1189127890882
s(I0
I36
I12
tp120
F9.433273759460633
s(I0
I58
I0
tp121
F488.70799879054965
s(I0
I1
I1
tp122
F548.1020954682322
s(I0
I73
I0
tp123
F604.7477968652172
s(I1
I78
I0
tp124
F633.4988926411222
s(I1
I0
I0
tp125
F638.8879928925833
s(I1
I82
I5
tp126
F775.2831266048195
s(I0
I8
I1
tp127
F513.0222573294625
s(I1
I58
I1
tp128
F722.9614673156442
s(I0
I31
I0
tp129
F413.9292119006932
s(I0
I40
I4
tp130
F447.3838899630503
s(I0
I93
I3
tp131
F608.4761425698784
s(I0
I46
I0
tp132
F362.78920282815045
s(I0
I63
I5
tp133
F609.3968997986369
s(I0
I103
I4
tp134
F623.2222091413739
s(I0
I36
I4
tp135
F160.36565391083082
s(I1
I35
I1
tp136
F690.0886730477612
s(I0
I53
I1
tp137
F309.122259083056
s(I1
I76
I1
tp138
F739.8347547464368
s(I1
I52
I0
tp139
F653.4648380572174
s(I1
I45
I4
tp140
F761.5674716104376
s(I0
I60
I1
tp141
F93.71794082554123
s(I1
I59
I6
tp142
F838.7132447212011
s(I0
I13
I4
tp143
F550.5842530245536
s(I0
I33
I6
tp144
F431.1607218465873
s(I0
I3
I0
tp145
F479.7996765673724
s(I0
I82
I0
tp146
F538.1145352335426
s(I0
I97
I0
tp147
F593.798943825989
s(I1
I56
I0
tp148
F688.3562700860365
s(I1
I8
I0
tp149
F662.1569946501601
s(I0
I37
I12
tp150
F265.74507392761745
s(I0
I55
I0
tp151
F480.3843547061609
s(I0
I64
I4
tp152
F599.4399466948288
s(I0
I60
I9
tp153
F263.26962945870383
s(I1
I66
I0
tp154
F705.886275690464
s(I0
I70
I0
tp155
F543.4369414806201
s(I0
I87
I5
tp156
F640.2989639988682
s(I1
I19
I0
tp157
F699.2879946761286
s(I0
I45
I1
tp158
F314.4940795610501
s(I0
I102
I7
tp159
F703.3133942583902
s(I1
I44
I0
tp160
F675.5649073848434
s(I0
I77
I6
tp161
F633.6990529338398
s(I1
I77
I2
tp162
F748.236059450948
s(I0
I67
I6
tp163
F607.8200053998842
s(I0
I84
I1
tp164
F655.0511957568993
s(I0
I37
I4
tp165
F95.66822661394228
s(I0
I17
I7
tp166
F550.2028484536859
s(I0
I59
I0
tp167
F487.2039899047452
s(I0
I12
I3
tp168
F534.2501053380523
s(I0
I49
I4
tp169
F431.6725039751217
s(I0
I74
I0
tp170
F412.4303406965681
s(I0
I19
I2
tp171
F435.4332494580445
s(I1
I72
I4
tp172
F769.5408379710486
s(I1
I7
I0
tp173
F640.3565080220911
s(I1
I39
I3
tp174
F694.0786990542636
s(I0
I36
I11
tp175
F28.299821278381927
s(I0
I16
I0
tp176
F396.5258500606348
s(I1
I2
I2
tp177
F720.3317182890189
s(I0
I47
I0
tp178
F376.0651668265568
s(I1
I11
I0
tp179
F657.9652080480445
s(I0
I29
I2
tp180
F398.9712918773754
s(I0
I69
I1
tp181
F423.5653704615957
s(I1
I78
I1
tp182
F646.9215703683084
s(I1
I28
I1
tp183
F734.4011905238638
s(I0
I61
I7
tp184
F439.6758854130488
s(I0
I101
I6
tp185
F701.740815019341
s(I1
I45
I3
tp186
F740.5507270186588
s(I0
I51
I7
tp187
F208.84550954026003
s(I1
I60
I2
tp188
F695.8371561280732
s(I0
I4
I0
tp189
F441.6765871128924
s(I0
I76
I1
tp190
F532.6596812006449
s(I0
I93
I4
tp191
F629.4845502386755
s(I1
I54
I2
tp192
F729.6538080672092
s(I1
I5
I1
tp193
F705.81687383574
s(I0
I83
I0
tp194
F567.7659541501308
s(I0
I36
I3
tp195
F179.2322014297521
s(I0
I98
I0
tp196
F591.4352180992314
s(I1
I63
I0
tp197
F637.2007871553232
s(I0
I1
I2
tp198
F526.4021968410531
s(I0
I73
I1
tp199
F627.7980360601322
s(I0
I18
I1
tp200
F436.70907829211353
s(I1
I82
I6
tp201
F794.6475874592405
s(I1
I32
I2
tp202
F768.1434197216929
s(I0
I8
I0
tp203
F499.3521353585348
s(I1
I58
I2
tp204
F740.8010521717177
s(I1
I65
I0
tp205
F683.2136182650227
s(I0
I71
I0
tp206
F545.1041708741361
s(I0
I40
I3
tp207
F428.7091553762511
s(I1
I18
I0
tp208
F664.6876117502577
s(I0
I63
I2
tp209
F554.2405728889256
s(I1
I4
I3
tp210
F738.4293404339155
s(I0
I17
I8
tp211
F569.7320425574718
s(I1
I35
I0
tp212
F667.2430440771409
s(I0
I53
I2
tp213
F330.2654444522952
s(I1
I27
I2
tp214
F762.3693171825676
s(I0
I38
I4
tp215
F354.65031357868065
s(I0
I60
I0
tp216
F72.52397974639592
s(I1
I59
I5
tp217
F816.7884516920216
s(I0
I13
I5
tp218
F572.6288804402851
s(I1
I61
I1
tp219
F763.1173438212122
s(I0
I3
I1
tp220
F466.0376224222667
s(I0
I75
I0
tp221
F443.7335517623291
s(I0
I20
I2
tp222
F335.0640481659036
s(I1
I6
I0
tp223
F660.5093023669655
s(I0
I35
I2
tp224
F299.23814396452497
s(I1
I70
I4
tp225
F819.5729849307301
s(I0
I10
I1
tp226
F487.63470476017574
s(I1
I56
I1
tp227
F706.4306491709556
s(I1
I15
I2
tp228
F698.9651347763397
s(I0
I17
I0
tp229
F413.49848972718394
s(I1
I77
I0
tp230
F716.0668135906714
s(I0
I32
I0
tp231
F411.7457028187134
s(I1
I33
I1
tp232
F719.5620741348478
s(I0
I64
I3
tp233
F579.1815067917186
s(I0
I60
I8
tp234
F242.07566837955852
s(I1
I66
I1
tp235
F725.5613875549187
s(I1
I10
I0
tp236
F682.1138651150221
s(I0
I30
I2
tp237
F395.743128100076
s(I0
I87
I2
tp238
F575.257098458641
s(I0
I45
I2
tp239
F339.90688134526874
s(I0
I102
I6
tp240
F683.3694191833365
s(I1
I44
I1
tp241
F692.7104802596634
s(I1
I51
I2
tp242
F709.3992000638575
s(I0
I5
I0
tp243
F442.89744072111796
s(I0
I67
I7
tp244
F629.2386295721473
s(I0
I84
I0
tp245
F638.8357931018232
s(I0
I37
I5
tp246
F116.92783252815167
s(I1
I59
I4
tp247
F794.863658662842
s(I0
I99
I0
tp248
F531.8516844914758
s(I0
I12
I2
tp249
F510.57391228539797
s(I0
I49
I5
tp250
F449.2412199168425
s(I1
I62
I0
tp251
F746.7449706036939
s(I0
I19
I3
tp252
F453.8794262628708
s(I1
I28
I6
tp253
F831.7633292350704
s(I1
I72
I5
tp254
F791.737715022014
s(I0
I34
I1
tp255
F278.7292915016244
s(I1
I39
I2
tp256
F674.8526575466252
s(I0
I9
I0
tp257
F503.8455040008219
s(I1
I5
I8
tp258
F856.0397283704275
s(I1
I64
I0
tp259
F658.9962686524628
s(I0
I36
I10
tp260
F47.16636879730319
s(I0
I88
I0
tp261
F511.1810855506473
s(I1
I2
I3
tp262
F741.9961543075545
s(I1
I17
I0
tp263
F641.1829019515642
s(I1
I34
I0
tp264
F646.726970509169
s(I0
I79
I2
tp265
F510.291523456968
s(I0
I69
I2
tp266
F443.9135703041076
s(I0
I86
I1
tp267
F580.7917887720058
s(I0
I61
I0
tp268
F304.7015920331303
s(I1
I45
I2
tp269
F719.5339824268801
s(I0
I51
I4
tp270
F150.07810540688533
s(I0
I40
I10
tp271
F559.4322974838456
s(I0
I76
I0
tp272
F513.09539846517
s(I1
I54
I3
tp273
F751.0331472422108
s(I1
I5
I0
tp274
F684.3564660450704
s(I0
I83
I1
tp275
F592.9508091997925
s(I0
I36
I2
tp276
F198.09874894867338
s(I1
I31
I4
tp277
F803.693596917301
s(I1
I40
I4
tp278
F806.1647143996373
s(I1
I70
I7
tp279
F879.133437859893
s(I0
I73
I2
tp280
F650.8482752550472
s(I0
I18
I0
tp281
F414.72562121423175
s(I0
I33
I0
tp282
F323.27940164442066
s(I1
I32
I3
tp283
F787.5366467116221
s(I0
I61
I8
tp284
F458.9579273244657
s(I1
I58
I3
tp285
F758.6406370277914
s(I1
I9
I0
tp286
F678.3621157922004
s(I1
I80
I2
tp287
F698.0617817066574
s(I0
I71
I1
tp288
F564.3515734315855
s(I0
I40
I2
tp289
F410.0344207894519
s(I0
I63
I3
tp290
F572.6260151921628
s(I0
I103
I2
tp291
F589.8572812809803
s(I0
I53
I3
tp292
F351.40862982153436
s(I0
I6
I0
tp293
F455.41386412334487
s(I0
I78
I1
tp294
F467.6908785121842
s(I1
I69
I2
tp295
F781.8684245244307
s(I1
I27
I1
tp296
F739.4986098737413
s(I0
I85
I0
tp297
F638.8434870267956
s(I0
I60
I7
tp298
F220.88170730041315
s(I0
I100
I0
tp299
F550.9423513254874
s(I0
I13
I6
tp300
F594.6735078560165
s(I1
I61
I0
tp301
F745.3627172359533
s(I1
I68
I2
tp302
F720.2566740761227
s(I0
I75
I1
tp303
F467.5654338963705
s(I0
I20
I1
tp304
F350.3816400073283
s(I1
I6
I1
tp305
F679.5510430856216
s(I0
I35
I3
tp306
F320.8273544519443
s(I0
I10
I0
tp307
F471.20588813714556
s(I1
I71
I0
tp308
F658.6344558874108
s(I1
I15
I1
tp309
F684.1810623975782
s(I0
I17
I1
tp310
F433.02768383097
s(I0
I89
I0
tp311
F522.4882186603112
s(I1
I16
I0
tp312
F632.2106326020181
s(I0
I104
I0
tp313
F592.3240788237674
s(I0
I19
I8
tp314
F546.1103102870024
s(I1
I33
I0
tp315
F703.5325870102297
s(I1
I72
I2
tp316
F725.147083869118
s(I0
I64
I2
tp317
F558.9230668886083
s(I1
I66
I2
tp318
F745.2364994193734
s(I1
I10
I1
tp319
F705.5645412777319
s(I0
I70
I2
tp320
F575.2628290214551
s(I0
I87
I3
tp321
F596.9377203053834
s(I0
I62
I0
tp322
F488.43795770550355
s(I0
I102
I1
tp323
F583.6495438080674
s(I0
I52
I4
tp324
F379.93207188162177
s(I1
I51
I1
tp325
F689.5144939560845
s(I0
I77
I0
tp326
F513.3429337002331
s(I0
I67
I4
tp327
F564.982757055358
s(I0
I37
I6
tp328
F138.18743844236107
s(I0
I12
I1
tp329
F486.8977192327436
s(I0
I49
I6
tp330
F466.80993585856334
s(I1
I62
I1
tp331
F767.2641039244339
s(I1
I69
I1
tp332
F761.2139769294525
s(I1
I13
I6
tp333
F826.83508022478
s(I0
I19
I0
tp334
F398.54089584839187
s(I1
I28
I7
tp335
F851.2357569773117
s(I0
I34
I0
tp336
F301.0387406720563
s(I1
I45
I5
tp337
F782.5842162022162
s(I1
I5
I4
tp338
F770.1980972077489
s(I1
I39
I1
tp339
F655.6266160389868
s(I0
I9
I1
tp340
F526.5023632563237
s(I1
I54
I4
tp341
F772.4124864172123
s(I0
I36
I9
tp342
F66.03291631622446
s(I1
I31
I3
tp343
F785.019542546094
s(I1
I53
I0
tp344
F665.697184221264
s(I1
I2
I4
tp345
F763.6605903260901
s(I1
I70
I8
tp346
F898.9869221696141
s(I0
I7
I0
tp347
F477.75427709935076
s(I1
I82
I0
tp348
F678.4608223327145
s(I0
I69
I3
tp349
F464.26177014661965
s(I0
I86
I0
tp350
F563.7129473408686
s(I0
I44
I4
tp351
F644.5282379032211
s(I0
I61
I1
tp352
F323.9836339445472
s(I0
I101
I0
tp353
F565.1187530280909
s(I0
I51
I5
tp354
F169.66724011801023
s(I0
I40
I9
tp355
F540.7575628970463
s(I1
I5
I3
tp356
F748.7376894170793
s(I1
I4
I2
tp357
F719.9141752098642
s(I0
I36
I1
tp358
F216.96529646759467
s(I1
I35
I6
tp359
F804.3168179008628
s(I0
I53
I4
tp360
F372.55181519077354
s(I0
I11
I0
tp361
F449.60983903741067
s(I1
I70
I0
tp362
F740.1590476918461
s(I0
I18
I3
tp363
F480.675992447877
s(I0
I90
I0
tp364
F567.5855527480213
s(I1
I23
I0
tp365
F733.8085000702326
s(I0
I33
I1
tp366
F341.2596216781151
s(I0
I105
I0
tp367
F613.3640933044163
s(I1
I32
I0
tp368
F729.3569657418348
s(I1
I28
I8
tp369
F870.708184719553
s(I1
I58
I4
tp370
F776.4802218838649
s(I0
I40
I1
tp371
F391.35968620265265
s(I0
I63
I0
tp372
F517.4696882824514
s(I0
I103
I3
tp373
F606.5397452111772
s(I1
I60
I3
tp374
F712.0964552541734
s(I1
I74
I0
tp375
F694.073032849464
s(I1
I27
I0
tp376
F716.6279025649151
s(I0
I78
I0
tp377
F443.775366634267
s(I0
I68
I4
tp378
F383.2448207357872
s(I0
I85
I1
tp379
F655.0742775318165
s(I0
I60
I6
tp380
F199.68774622126784
s(I1
I59
I3
tp381
F772.9388656336623
s(I1
I61
I3
tp382
F798.6265969917299
s(I0
I20
I0
tp383
F365.699231848753
s(I1
I6
I2
tp384
F698.5927838042777
s(I0
I102
I8
tp385
F723.2573693334441
s(I0
I35
I0
tp386
F256.05972298968624
s(I0
I52
I3
tp387
F357.1488294699719
s(I0
I10
I3
tp388
F520.4923380062361
s(I1
I60
I0
tp389
F663.3185578758727
s(I0
I63
I8
tp390
F664.5532267083482
s(I1
I13
I4
tp391
F784.7037354117374
s(I0
I17
I2
tp392
F452.5568779347559
s(I0
I89
I1
tp393
F539.0318990136493
s(I1
I33
I3
tp394
F751.6210483840839
s(I1
I72
I3
tp395
F747.3439609200833
s(I1
I48
I2
tp396
F702.8543155170838
s(I0
I24
I0
tp397
F399.97045247619366
s(I0
I64
I1
tp398
F538.6646269854982
s(I1
I66
I3
tp399
F764.9116112838282
s(I1
I10
I2
tp400
F729.0152174404417
s(I1
I81
I0
tp401
F655.6706853434948
s(I0
I51
I10
tp402
F267.61291367363475
s(I0
I87
I0
tp403
F531.8958547651563
s(I1
I44
I4
tp404
F744.1471988841236
s(I0
I102
I0
tp405
F563.7055687330137
s(I1
I51
I0
tp406
F669.6297878483115
s(I0
I77
I1
tp407
F533.4022869058342
s(I0
I67
I5
tp408
F586.4013812276211
s(I0
I37
I7
tp409
F159.44704435657044
s(I1
I36
I2
tp410
F698.3162589710766
s(I0
I12
I0
tp411
F463.22152618008926
s(I0
I69
I4
tp412
F484.60996998913157
s(I1
I62
I2
tp413
F787.7832372451741
s(I1
I69
I0
tp414
F740.5595293344746
s(I1
I13
I1
tp415
F721.5067181921736
s(I0
I19
I1
tp416
F416.9870726532182
s(I0
I91
I0
tp417
F569.3766284922601
s(I0
I44
I3
tp418
F627.692999430782
s(I1
I22
I0
tp419
F693.8894541682907
s(I0
I106
I0
tp420
F615.0387970016375
s(I0
I51
I2
tp421
F110.89983598463552
s(I1
I39
I0
tp422
F636.4005745313484
s(I0
I9
I2
tp423
F549.1592225118255
s(I0
I36
I8
tp424
F84.89946383514572
s(I1
I31
I2
tp425
F766.3454881748874
s(I1
I2
I5
tp426
F785.3250263446256
s(I1
I14
I6
tp427
F812.4218714100646
s(I1
I40
I2
tp428
F769.1660685845635
s(I0
I48
I0
tp429
F378.7798598215639
s(I1
I73
I0
tp430
F676.3391266354955
s(I0
I79
I0
tp431
F458.3739376550801
s(I1
I82
I1
tp432
F697.8252831871356
s(I1
I26
I0
tp433
F688.9877109696954
s(I1
I3
I0
tp434
F669.8984451962078
s(I0
I86
I3
tp435
F614.9494716342804
s(I0
I39
I2
tp436
F404.13026153751963
s(I1
I43
I0
tp437
F654.4397377725287
s(I0
I61
I2
tp438
F343.26567585596416
s(I0
I101
I1
tp439
F587.8890966932993
s(I0
I14
I1
tp440
F405.658330395321
s(I0
I40
I8
tp441
F522.0828283102471
s(I0
I76
I6
tp442
F630.4810948780195
s(I0
I21
I0
tp443
F340.67576865289146
s(I1
I5
I2
tp444
F727.2772816264097
s(I1
I60
I1
tp445
F679.5778570019729
s(I0
I36
I0
tp446
F235.83184398651593
s(I1
I35
I5
tp447
F781.4711889302423
s(I0
I53
I5
tp448
F393.6950005600128
s(I1
I37
I1
tp449
F746.7025956516586
s(I0
I68
I3
tp450
F363.648320811706
s(I1
I70
I1
tp451
F760.0125320015671
s(I1
I14
I0
tp452
F699.3323374152895
s(I0
I18
I2
tp453
F458.6925353699952
s(I0
I33
I2
tp454
F359.2398417118095
s(I0
I105
I1
tp455
F632.0998514361806
s(I0
I50
I1
tp456
F30.963499603411627
s(I1
I32
I1
tp457
F748.750192731764
s(I0
I25
I0
tp458
F372.77520248245315
s(I1
I58
I5
tp459
F794.3198067399385
s(I1
I80
I0
tp460
F653.6625793665199
s(I0
I40
I0
tp461
F372.68495161585344
s(I0
I63
I1
tp462
F535.8551305856886
s(I0
I103
I0
tp463
F556.4923534205866
s(I0
I0
I2
tp464
F588.3412118037555
s(I1
I74
I1
tp465
F716.172374489819
s(I1
I50
I0
tp466
F715.6806677974497
s(I1
I15
I0
tp467
F669.3969900188167
s(I0
I78
I3
tp468
F515.5219022680185
s(I0
I95
I2
tp469
F599.0117822639132
s(I0
I85
I2
tp470
F671.3050680368374
s(I0
I38
I1
tp471
F302.46668911604166
s(I0
I60
I5
tp472
F178.49378514212253
s(I1
I59
I2
tp473
F751.0140726044827
s(I0
I13
I0
tp474
F462.4057433616278
s(I1
I61
I2
tp475
F780.8719704064711
s(I1
I68
I0
tp476
F680.3541482326715
s(I0
I92
I0
tp477
F524.5815471063655
s(I1
I6
I3
tp478
F717.6345245229338
s(I1
I21
I0
tp479
F698.520390494464
s(I0
I35
I1
tp480
F277.64893347710563
s(I0
I107
I0
tp481
F644.1302925753308
s(I0
I52
I2
tp482
F334.365587058322
s(I1
I38
I0
tp483
F717.976726069028
s(I0
I10
I2
tp484
F504.0635213832059
s(I0
I67
I2
tp485
F522.1455087108318
s(I0
I37
I8
tp486
F180.70665027077987
s(I0
I17
I3
tp487
F472.08607203854194
s(I0
I89
I2
tp488
F555.5755793669874
s(I0
I42
I1
tp489
F597.8874087231536
s(I0
I49
I0
tp490
F361.39764020823844
s(I1
I33
I2
tp491
F735.5915612594658
s(I1
I72
I0
tp492
F680.7533297671873
s(I0
I64
I0
tp493
F518.406187082388
s(I1
I66
I4
tp494
F784.5867231482829
s(I1
I25
I0
tp495
F658.7574827527551
s(I0
I87
I1
tp496
F553.5764766118987
s(I1
I42
I0
tp497
F634.3374541875767
s(I0
I102
I3
tp498
F623.537493958175
s(I0
I77
I2
tp499
F553.4616401114353
s(I0
I22
I0
tp500
F370.6981757041121
s(I0
I37
I0
tp501
F10.629802957104697
s(I1
I67
I3
tp502
F771.0699937855
s(I0
I69
I5
tp503
F504.9581698316435
s(I1
I62
I3
tp504
F808.3023705659141
s(I1
I69
I3
tp505
F802.5228721194086
s(I1
I13
I0
tp506
F700.4410457856522
s(I0
I19
I6
tp507
F509.2179566773498
s(I1
I28
I5
tp508
F812.2909014928291
s(I1
I72
I8
tp509
F858.32834617491
s(I0
I44
I2
tp510
F610.857760958343
s(I1
I22
I1
tp511
F708.8907998653583
s(I0
I34
I2
tp512
F256.4198423311925
s(I0
I51
I3
tp513
F130.48897069576043
s(I0
I9
I3
tp514
F571.8160817673273
s(I0
I26
I0
tp515
F319.79935875123175
s(I1
I5
I5
tp516
F791.6585049984186
s(I1
I31
I1
tp517
F747.6714338036804
s(I0
I41
I0
tp518
F572.1361755918642
s(I1
I2
I6
tp519
F806.9894623631612
s(I1
I40
I3
tp520
F787.6653914921004
s(I1
I49
I0
tp521
F720.199630858134
s(I0
I79
I1
tp522
F484.33273055602405
s(I1
I82
I2
tp523
F717.1897440415565
s(I0
I86
I2
tp524
F597.870630203143
s(I0
I61
I3
tp525
F362.5477177673811
s(I0
I101
I2
tp526
F610.6594403585075
s(I0
I14
I0
tp527
F427.19186547922476
s(I0
I40
I7
tp528
F503.4080937234479
s(I0
I76
I5
tp529
F610.9168121425446
s(I0
I93
I0
tp530
F545.4509195634874
s(I0
I63
I6
tp531
F627.7823421018741
s(I1
I83
I0
tp532
F677.4077133563238
s(I1
I20
I0
tp533
F685.5159561718253
s(I0
I36
I7
tp534
F103.76601135406702
s(I0
I108
I0
tp535
F641.1187263376049
s(I0
I53
I6
tp536
F414.83818592925195
s(I1
I37
I0
tp537
F720.1111751151702
s(I1
I76
I2
tp538
F761.0415898269932
s(I0
I68
I2
tp539
F344.05182088762484
s(I1
I70
I2
tp540
F779.866016311288
s(I1
I14
I1
tp541
F718.1805930810854
s(I0
I33
I3
tp542
F377.2200617455039
s(I0
I105
I2
tp543
F650.835609567945
s(I0
I50
I0
tp544
F10.321166534470542
s(I1
I79
I0
tp545
F634.6751662795074
s(I0
I65
I0
tp546
F617.7549055491288
s(I1
I58
I6
tp547
F812.1593915960121
s(I1
I80
I1
tp548
F675.8621805365887
s(I1
I24
I0
tp549
F738.5705023066373
s(I1
I69
I4
tp550
F823.1773197143865
s(I1
I41
I0
tp551
F741.8967600523137
s(I0
I103
I1
tp552
F573.1748173507833
s(I0
I0
I1
tp553
F603.719748593265
s(I1
I74
I2
tp554
F738.2717161301741
s(I0
I78
I2
tp555
F491.60639039010135
s(I0
I23
I0
tp556
F399.90210990037707
s(I0
I85
I3
tp557
F687.5358585418583
s(I0
I38
I0
tp558
F285.0721476284953
s(I0
I60
I4
tp559
F157.29982406297722
s(I1
I59
I1
tp560
F729.0892795753032
s(I0
I13
I1
tp561
F484.4503707773593
s(I0
I87
I6
tp562
F661.9795858456106
s(I1
I68
I1
tp563
F700.3054111543971
s(I1
I12
I0
tp564
F675.9565817059138
s(I0
I52
I1
tp565
F311.582344646672
s(I1
I38
I1
tp566
F740.2992485132322
s(I1
I77
I1
tp567
F732.1514365208096
s(I0
I27
I0
tp568
F313.24137844242284
s(I0
I67
I3
tp569
F543.5641328830949
s(I1
I4
I1
tp570
F701.3990099858128
s(I0
I37
I9
tp571
F201.96625618498925
s(I0
I17
I4
tp572
F491.61526614232787
s(I0
I42
I0
tp573
F582.9642605120401
s(I0
I49
I1
tp574
F378.96635614995927
s(I1
I62
I4
tp575
F828.8215038866541
s(I1
I72
I1
tp576
F702.9502068181527
s(I1
I48
I0
tp577
F668.3208109389567
s(I1
I66
I5
tp578
F804.2618350127375
s(I0
I51
I8
tp579
F228.43464425138495
s(I0
I102
I2
tp580
F603.5935188831213
s(I0
I15
I0
tp581
F381.33791760772203
s(I1
I70
I6
tp582
F859.2799535501721
s(I0
I77
I3
tp583
F573.5209933170364
s(I0
I94
I0
tp584
F545.1088904819385
s(I1
I14
I5
tp585
F793.5736157442686
s(I0
I37
I1
tp586
F31.889408871314096
s(I1
I36
I0
tp587
F664.31943546768
s(I1
I67
I2
tp588
F749.6353440634248
s(I0
I69
I6
tp589
F525.3063696741555
s(I1
I67
I4
tp590
F792.5046435075752
s(I1
I13
I3
tp591
F763.638063005216
s(I0
I19
I7
tp592
F527.6641334821761
s(I1
I28
I2
tp593
F753.873618266105
s(I0
I44
I1
tp594
F594.0225224859039
s(I0
I61
I4
tp595
F381.829759678798
s(I1
I22
I2
tp596
F723.8921455624259
s(I1
I45
I6
tp597
F803.6009607939949
s(I0
I51
I0
tp598
F71.7215665623857
s(I0
I9
I4
tp599
F594.4729410228291
s(I0
I66
I0
tp600
F622.61859621967
s(I1
I31
I0
tp601
F728.9973794324737
s(I1
I40
I0
tp602
F732.1674227694897
s(I1
I82
I3
tp603
F736.5542048959776
s(I1
I28
I4
tp604
F792.8184737505878
s(I0
I39
I0
tp605
F371.504119765467
s(I0
I101
I3
tp606
F633.4297840237159
s(I0
I40
I6
tp607
F484.73335913664874
s(I0
I76
I4
tp608
F591.3525294070696
s(I0
I93
I1
tp609
F566.4593272322845
s(I0
I63
I7
tp610
F646.1677844051111
s(I0
I36
I6
tp611
F122.63255887298828
s(I1
I35
I3
tp612
F735.7799309890017
s(I0
I53
I7
tp613
F435.9813712984912
s(I0
I28
I0
tp614
F323.79118278682313
s(I0
I68
I1
tp615
F324.4553209635436
s(I0
I85
I4
tp616
F703.7666490468791
s(I1
I70
I3
tp617
F799.7195006210092
s(I1
I14
I2
tp618
F737.0288487468812
s(I0
I18
I4
tp619
F502.65944952575865
s(I0
I43
I0
tp620
F587.7220315022994
s(I0
I60
I3
tp621
F136.10586298383188
s(I0
I33
I4
tp622
F395.20028177919846
s(I0
I105
I3
tp623
F669.5713676997093
s(I1
I61
I4
tp624
F816.3812235769888
s(I0
I3
I2
tp625
F452.27556827716097
s(I1
I55
I0
tp626
F677.7622703366412
s(I1
I6
I5
tp627
F755.718005960246
s(I0
I67
I8
tp628
F650.6572537444102
s(I1
I56
I2
tp629
F724.5050282558745
s(I0
I0
I0
tp630
F619.0982853827744
s(I1
I74
I3
tp631
F760.3710577705292
s(I0
I95
I0
tp632
F564.019208640613
s(I0
I38
I3
tp633
F337.2557720911343
s(I1
I59
I0
tp634
F707.1644865461236
s(I0
I13
I2
tp635
F506.4949981930907
s(I0
I30
I1
tp636
F370.7631064384748
s(I1
I67
I0
tp637
F706.7660446192742
s(I0
I102
I5
tp638
F663.4254441082826
s(I1
I44
I2
tp639
F709.8560531344834
s(I0
I52
I0
tp640
F288.79910223502213
sa(dp641
g2
F12.753948165436688
sg3
F24.61803564034597
sg4
F29.83785194637651
sg5
F19.482690918443534
sg6
F47.62058704142145
sg7
F32.7780158912953
sg8
F24.654541406796984
sg9
F25.19691280146444
sg10
F38.6193017676141
sg11
F24.587143540371823
sg12
F23.368731598950315
sg13
F24.98781242507655
sg14
F23.837844879695037
sg15
F56.218665916675555
sg16
F46.639104693537455
sg17
F24.740253152206538
sg18
F25.02577410416878
sg19
F60.983132528528394
sg20
F25.019256636952296
sg21
F24.294472146166264
sg22
F37.781034551808
sg23
F26.741892189714044
sg24
F24.238674999336016
sg25
F33.96301379957068
sg26
F24.37576898355013
sg27
F25.028891815047427
sg28
F24.846738279421707
sg29
F26.601125303780485
sg30
F24.583249274263917
sg31
F25.10030312536822
sg32
F67.62089819711892
sg33
F24.53467721239582
sg34
F14.754906867102019
sg35
F28.003972696227084
sg36
F24.605377436374827
sg37
F23.643398984349435
sg38
F27.20999285530858
sg39
F24.5870460506275
sg40
F47.28519102535747
sg41
F24.68371476183651
sg42
F26.490498890109233
sg43
F28.653439113219964
sg44
F24.15192178875987
sg45
F25.613947235463755
sg46
F37.21272038898398
sg47
F29.61488492705829
sg48
F24.62965412122443
sg49
F34.15862388361207
sg50
F14.839234447995706
sg51
F30.047277408138115
sg52
F27.57443488942662
sg53
F14.361545521348829
sg54
F25.047350259199572
sg55
F52.712813513980045
sg56
F24.812616852809757
sg57
F53.98792210381988
sg58
F17.155252501394685
sg59
F24.26078106493094
sg60
F24.869479209474182
sg61
F33.54641682711138
sg62
F24.684951282508976
sg63
F24.921832417337118
sg64
F60.50645061988289
sg65
F37.164169266300206
sg66
F25.65497997341559
sg67
F70.75357413903859
sg68
F17.330329861902158
sg69
F24.251263464263932
sg70
F24.400796811423813
sg71
F25.302611621954334
sg72
F46.749106083072896
sg73
F25.015678801510997
sg74
F14.212050245537364
sg75
F24.596302073876792
sg76
F25.260365991273165
sg77
F27.62595362337504
sg78
F40.35073327586459
sg79
F35.997129812019494
sg80
F29.714375446770166
sg81
F37.75565617326777
sg82
F15.294903218301187
sg83
F27.559839828272047
sg84
F42.9621205508066
sg85
F26.597003976651006
sg86
F42.60085828480663
sg87
F24.92291513982687
sg88
F23.136940757681796
sg89
F12.375564708335444
sg90
F24.62519485822696
sg91
F18.702144877294522
sg92
F26.84224383156739
sg93
F45.84454937821992
sg94
F32.42961790823183
sg95
F25.08051808208219
sg96
F38.2462648113673
sg97
F28.5193862795676
sg98
F23.588578145984954
sg99
F23.211485251856388
sg100
F28.227505792209833
sg101
F27.658556619726497
sg102
F24.78142231328452
sg103
F24.81203025369079
sg104
F59.65981421809134
sg105
F46.81484475503528
sg106
F29.63461856149339
sg107
F37.512171102777394
sg108
F24.008298473599986
sg109
F33.816446895872105
sg110
F24.643182247076577
sg111
F23.342641647948646
sg112
F26.48627485324347
sg113
F25.21286986068727
sg114
F59.94775633039677
sg115
F15.535002167823428
sg116
F24.859741057709055
sg117
F27.929026443381623
sg118
F24.34165251114686
sg119
F23.793135449715923
sg120
F63.7974274730423
sg121
F46.59456979670084
sg122
F27.134170575349806
sg123
F14.359966017377713
sg124
F25.643984255535333
sg125
F25.502498929499033
sg126
F24.027985833767286
sg127
F29.636569560015342
sg128
F24.47035864185365
sg129
F37.15243527657477
sg130
F31.189854616811093
sg131
F27.510901959584025
sg132
F39.890103348030074
sg133
F13.95186923750747
sg134
F27.202574713018436
sg135
F51.08297193784081
sg136
F24.974242702947063
sg137
F52.76612706040148
sg138
F24.716617544926844
sg139
F25.180203854137172
sg140
F24.786463571954787
sg141
F64.05506988620992
sg142
F24.172761296879596
sg143
F29.501591739878336
sg144
F37.09947191757973
sg145
F29.23917627937607
sg146
F27.916921102361034
sg147
F27.61483840355978
sg148
F24.80097774667256
sg149
F25.388420401998385
sg150
F44.15360742181197
sg151
F46.755647381018036
sg152
F14.866047812326022
sg153
F38.71469014366102
sg154
F24.432885798910583
sg155
F15.58542733153371
sg156
F27.463394033701842
sg157
F25.205678307902485
sg158
F41.96012940599203
sg159
F26.131702721981636
sg160
F25.22784840538998
sg161
F12.181566416666158
sg162
F24.823889663575816
sg163
F14.584132839965726
sg164
F26.913797830593353
sg165
F58.39871405412776
sg166
F32.160396794379416
sg167
F46.639051566211236
sg168
F29.716762716658202
sg169
F37.9825114577977
sg170
F22.71614292169115
sg171
F34.21000665721126
sg172
F23.921896458184452
sg173
F25.533851612320515
sg174
F25.000237643642556
sg175
F62.283406137875275
sg176
F34.42760301257022
sg177
F24.638384695390403
sg178
F39.72986303273803
sg179
F25.393894826405845
sg180
F37.376045010423994
sg181
F23.13636484438721
sg182
F25.624420183448525
sg183
F24.53795449349974
sg184
F21.919854875068463
sg185
F26.425335471784944
sg186
F24.97812778419137
sg187
F58.61708757270891
sg188
F24.770583541768623
sg189
F30.669180249338968
sg190
F16.04775620386237
sg191
F27.46485223643537
sg192
F24.240411334840317
sg193
F24.733803206834263
sg194
F27.56786265985387
sg195
F49.476094979806255
sg196
F27.620007567238822
sg197
F25.585192817985714
sg198
F27.7496046487949
sg199
F14.0536752405486
sg200
F33.967351299278796
sg201
F23.966097763589826
sg202
F24.387275108286843
sg203
F29.684739889263874
sg204
F24.337878213063597
sg205
F24.770998891975136
sg206
F15.597374792889239
sg207
F32.43979354169126
sg208
F25.302091345809625
sg209
F15.472298344072009
sg210
F24.765188265148975
sg211
F32.02447534307978
sg212
F25.180750053274082
sg213
F51.679354455667166
sg214
F24.54378074072266
sg215
F38.17147541184261
sg216
F67.72262699119409
sg217
F24.212341028577452
sg218
F29.35887209801226
sg219
F24.31574737308983
sg220
F29.750065206136167
sg221
F20.142693137687292
sg222
F37.57784586139047
sg223
F25.294000832569793
sg224
F42.915532160217026
sg225
F23.29313227018382
sg226
F29.988167701134333
sg227
F24.690011941437973
sg228
F25.27093409801193
sg229
F34.169226930414
sg230
F24.956582267614372
sg231
F37.160380318274434
sg232
F24.704321031330284
sg233
F15.218329071450658
sg234
F41.52444629403124
sg235
F24.26764723514778
sg236
F25.310557849499006
sg237
F37.21053582980695
sg238
F27.762408928642756
sg239
F40.59924064775476
sg240
F26.235751834816217
sg241
F25.170323762566426
sg242
F24.88058647829083
sg243
F30.70383638814962
sg244
F14.01990784756885
sg245
F27.056012044153675
sg246
F57.200207072584575
sg247
F24.246827348616655
sg248
F27.750201001691792
sg249
F29.879534460456366
sg250
F37.77273709861072
sg251
F24.444794259555746
sg252
F34.07451506549161
sg253
F24.06069550168264
sg254
F23.60526781274366
sg255
F40.93822230624983
sg256
F25.161706140188052
sg257
F29.467669033172264
sg258
F23.568649288730555
sg259
F25.25797183258001
sg260
F60.79823738255777
sg261
F28.29705391762393
sg262
F24.504556803689592
sg263
F25.441590845671954
sg264
F25.39856528788363
sg265
F30.23564068583971
sg266
F21.703234744815664
sg267
F27.202151698184476
sg268
F33.66396852247674
sg269
F25.03584455944912
sg270
F62.86891538631856
sg271
F25.95401784597116
sg272
F16.48038509309438
sg273
F24.177320404133706
sg274
F24.955991009170845
sg275
F27.361368362353446
sg276
F47.89111516050846
sg277
F23.80436212557903
sg278
F24.57969258473851
sg279
F22.82713159833799
sg280
F13.909583780973957
sg281
F34.2070415424585
sg282
F38.42885139604605
sg283
F24.314074119722257
sg284
F20.57630955425742
sg285
F24.232067660463862
sg286
F25.330938207622303
sg287
F25.267543687078383
sg288
F15.260113118903623
sg289
F33.797427049177884
sg290
F14.868513614742035
sg291
F27.267476372723884
sg292
F50.72976070262338
sg293
F30.302420086623332
sg294
F19.0051225040957
sg295
F23.132600686343903
sg296
F24.58712253788558
sg297
F26.98560535227191
sg298
F44.42977301006742
sg299
F27.433620521761274
sg300
F29.28682974183131
sg301
F24.42091823808367
sg302
F23.96262736399652
sg303
F18.654366972221602
sg304
F36.39038508681713
sg305
F25.110390224935156
sg306
F42.71229037735115
sg307
F30.076646535837966
sg308
F25.351310108346617
sg309
F25.307811122853742
sg310
F33.763810228815565
sg311
F28.226512099748373
sg312
F25.579363496645513
sg313
F26.18656595540018
sg314
F33.222802416048154
sg315
F24.776565009456064
sg316
F24.75573942079831
sg317
F15.69262741828002
sg318
F24.134755439284337
sg319
F25.12896222094433
sg320
F15.146641052656147
sg321
F27.640448390259355
sg322
F19.017372545447458
sg323
F27.057085020516375
sg324
F50.736007913944036
sg325
F24.948334678238062
sg326
F16.09642677559888
sg327
F16.533579787480292
sg328
F55.584994665107544
sg329
F30.122298817835198
sg330
F37.61821122464178
sg331
F24.35918070248937
sg332
F23.335488603879107
sg333
F23.51671172088778
sg334
F34.491816887800496
sg335
F23.935855993251966
sg336
F39.3636087790203
sg337
F24.63681066575676
sg338
F24.301345868097503
sg339
F25.344281998173027
sg340
F29.03100346958919
sg341
F24.140663786798864
sg342
F59.3406772241635
sg343
F23.861527437893315
sg344
F25.035503456012847
sg345
F24.410330301651403
sg346
F22.765337590572862
sg347
F29.907135181507815
sg348
F25.276968976077264
sg349
F20.043748083742983
sg350
F27.50767138762202
sg351
F22.268155785026376
sg352
F31.719952998356185
sg353
F27.276091251226937
sg354
F61.36518870143855
sg355
F26.554116783518385
sg356
F24.40680505807029
sg357
F24.819355855065048
sg358
F46.327014026595435
sg359
F24.324449322714933
sg360
F49.91996525864634
sg361
F30.44447756585531
sg362
F23.633889110337247
sg363
F33.575324593783805
sg364
F28.09404361536975
sg365
F24.947288796890614
sg366
F38.05185151891621
sg367
F26.067599363015336
sg368
F24.48853631087092
sg369
F23.87351762779275
sg370
F24.152811034984737
sg371
F35.26333571284836
sg372
F16.971063549023288
sg373
F27.22801089117756
sg374
F24.64523737613922
sg375
F25.061094967248103
sg376
F24.67399327869043
sg377
F20.21573858963264
sg378
F25.396789958502396
sg379
F26.70252824169055
sg380
F47.43401161714168
sg381
F24.307764543128474
sg382
F24.18449744996418
sg383
F35.337561265056095
sg384
F24.724417103180002
sg385
F26.079250079450826
sg386
F43.31045460917191
sg387
F51.427768733556526
sg388
F29.877081329493148
sg389
F25.065943602314224
sg390
F13.321004815794664
sg391
F23.732530618000485
sg392
F33.42177188873504
sg393
F28.16886467037332
sg394
F24.625358050056736
sg395
F24.319691853020057
sg396
F24.860649419220042
sg397
F37.23257987637662
sg398
F16.28741782388681
sg399
F24.03403327754067
sg400
F25.034154770884133
sg401
F25.543672399989894
sg402
F55.15263214651314
sg403
F28.049956602728674
sg404
F24.872562374809448
sg405
F27.272775304003794
sg406
F25.084015552023438
sg407
F14.982383062093106
sg408
F15.421178202668122
sg409
F53.46367135112005
sg410
F24.86092447523318
sg411
F30.30573738227118
sg412
F18.512110340451514
sg413
F24.212124722877608
sg414
F23.606932109609044
sg415
F24.602413671983356
sg416
F34.36672789984121
sg417
F28.085130918826493
sg418
F22.552581553659195
sg419
F25.18910336924095
sg420
F26.00536601263064
sg421
F66.13405765448931
sg422
F25.548118374724556
sg423
F28.666148134506415
sg424
F57.90954885984109
sg425
F23.97599534294615
sg426
F24.355552911458535
sg427
F24.4904707219051
sg428
F24.631823973751075
sg429
F39.67986866444664
sg430
F25.17811869684007
sg431
F30.429946949665325
sg432
F24.90002389354318
sg433
F24.85570414661126
sg434
F25.119077933142687
sg435
F26.819102765127152
sg436
F37.07529548796805
sg437
F25.322271383353932
sg438
F29.86858798236727
sg439
F27.077092214337874
sg440
F32.80742137514041
sg441
F27.264657392557943
sg442
F13.564023110150613
sg443
F37.765642312780834
sg444
F24.550837937757
sg445
F24.910790911182595
sg446
F44.76268707232864
sg447
F24.411876820707754
sg448
F49.25310082969077
sg449
F24.378918258473167
sg450
F27.298468901183266
sg451
F23.493658965403437
sg452
F25.04587124788423
sg453
F33.80863839218774
sg454
F37.736587596166174
sg455
F25.903610639049973
sg456
F73.09402280072753
sg457
F24.44177778878209
sg458
F37.46929283159312
sg459
F24.10002148581818
sg460
F25.52509540256959
sg461
F36.83832624552362
sg462
F16.17296564132863
sg463
F27.416437912411798
sg464
F26.123127887684223
sg465
F24.950961949412616
sg466
F24.816580020093205
sg467
F25.332758233776406
sg468
F17.47298375325375
sg469
F27.58493524919535
sg470
F26.48969078074734
sg471
F41.547226328855295
sg472
F50.54048306470084
sg473
F24.395219088524836
sg474
F30.27208999526187
sg475
F24.236968945887263
sg476
F24.802897507272814
sg477
F28.073428597902446
sg478
F24.640940791302572
sg479
F25.189839516272997
sg480
F43.07818154144107
sg481
F25.84254841312659
sg482
F52.37557176588146
sg483
F24.743835769141167
sg484
F29.92528908747434
sg485
F18.063817276805096
sg486
F51.42960545711761
sg487
F33.14324553719269
sg488
F28.1117974150448
sg489
F25.199847512629855
sg490
F39.683508752733424
sg491
F24.65393357120395
sg492
F25.10501190296006
sg493
F17.00204033152305
sg494
F23.965346495600453
sg495
F25.200977025050435
sg496
F27.925435079477577
sg497
F25.48064627317561
sg498
F26.724997177530415
sg499
F14.05632344469874
sg500
F37.38076127368612
sg501
F63.815375695865
sg502
F24.1189569350292
sg503
F17.10344771913523
sg504
F24.07273077061235
sg505
F22.997672307751554
sg506
F25.041336645069986
sg507
F33.59069960788597
sg508
F24.190553975133046
sg509
F23.132995236218548
sg510
F23.109301856852245
sg511
F25.062135024881652
sg512
F42.71602138640182
sg513
F64.45860534261196
sg514
F28.373145308334827
sg515
F38.39427400269319
sg516
F24.01833358498538
sg517
F24.148040731260025
sg518
F25.654818600885037
sg519
F24.29553170689901
sg520
F24.599063510673243
sg521
F24.796668201702076
sg522
F30.30080227031341
sg523
F24.587378574839875
sg524
F26.97261530650889
sg525
F28.10747535398128
sg526
F26.92131560636161
sg527
F31.472548195179474
sg528
F28.084269460430622
sg529
F13.767924365632545
sg530
F27.816850390505994
sg531
F13.640570424083528
sg532
F25.489463438733996
sg533
F25.239165723298598
sg534
F56.50145465544776
sg535
F25.866111008351623
sg536
F48.558896732292695
sg537
F24.615767911311043
sg538
F24.64030488533895
sg539
F29.28852006345859
sg540
F23.405899731892678
sg541
F24.895160909087824
sg542
F37.483290649148515
sg543
F25.779598034187174
sg544
F67.39068594372652
sg545
F25.62279762701924
sg546
F14.710916631811001
sg547
F24.073641165245174
sg548
F25.353297248117368
sg549
F24.93160306893911
sg550
F22.93030707210131
sg551
F24.76663653321624
sg552
F27.330326345839104
sg553
F25.845677630049266
sg554
F24.84474986759635
sg555
F18.09100446583806
sg556
F37.23302307613677
sg557
F26.347238750676407
sg558
F42.81486364851116
sg559
F53.75250016895737
sg560
F24.509286389007254
sg561
F30.047294786883537
sg562
F27.392472157709147
sg563
F24.366064415719855
sg564
F25.234176956773602
sg565
F53.0371270599578
sg566
F24.68571040592143
sg567
F24.868116960288106
sg568
F38.71241560852756
sg569
F17.569029278942512
sg570
F24.902819860609608
sg571
F49.48210821732399
sg572
F32.92851401405034
sg573
F25.43334014628113
sg574
F39.099095596638634
sg575
F24.00313468993583
sg576
F24.909405832280594
sg577
F25.153449652303074
sg578
F23.891156526988308
sg579
F57.37379920338811
sg580
F26.874464302652186
sg581
F34.71021870976155
sg582
F22.95088734691329
sg583
F13.31421605944248
sg584
F27.8282629362579
sg585
F24.550386093210527
sg586
F62.36838534430312
sg587
F25.20248080429195
sg588
F24.187582378753806
sg589
F16.04720873725967
sg590
F24.088487250765112
sg591
F23.949009051734972
sg592
F33.346155179237584
sg593
F24.453841816871826
sg594
F23.934882742131087
sg595
F26.43428169627374
sg596
F24.97400650853724
sg597
F24.56209784313629
sg598
F68.92832934009421
sg599
F28.152256493066844
sg600
F14.643607707490846
sg601
F24.378076763595285
sg602
F24.754776175949967
sg603
F24.33822567053502
sg604
F24.267319814584607
sg605
F37.48189402018566
sg606
F26.782634353370355
sg607
F29.012001802948394
sg608
F14.165793424083274
sg609
F27.676508333348064
sg610
F13.429426890041656
sg611
F54.36673989006258
sg612
F24.695582043178973
sg613
F47.83405088813388
sg614
F38.297380534394854
sg615
F31.37010872728836
sg616
F26.275527888830712
sg617
F23.33907742466951
sg618
F24.774903288544866
sg619
F33.4046749794401
sg620
F25.483237018399485
sg621
F57.07337916022382
sg622
F37.29232007617808
sg623
F25.69666199392157
sg624
F24.158275932487893
sg625
F30.26584403683693
sg626
F24.906744716709376
sg627
F24.461724695681895
sg628
F13.730610602439556
sg629
F24.6345913787783
sg630
F25.686190806517537
sg631
F24.6790252658846
sg632
F27.70747990926241
sg633
F39.22543185832599
sg634
F24.65009088064331
sg635
F29.868607158911146
sg636
F37.423314580067746
sg637
F24.43979533497113
sg638
F26.391002395684126
sg639
F25.023722605517015
sg640
F54.01829365040748
sa.