(lp0
(dp1
(I0
I77
I4
tp2
F1231.952581359447
s(I1
I38
I2
tp3
F147.41889823918723
s(I0
I10
I4
tp4
F299.37612342372216
s(I0
I67
I0
tp5
F1117.6804952031148
s(I0
I37
I10
tp6
F861.5980969360079
s(I0
I17
I5
tp7
F402.8006395439925
s(I1
I30
I0
tp8
F92.38622512914618
s(I1
I47
I0
tp9
F40.511228579769494
s(I0
I49
I2
tp10
F1034.9073069284893
s(I1
I33
I4
tp11
F152.4476627904528
s(I1
I72
I6
tp12
F198.73171935473022
s(I1
I48
I1
tp13
F70.38469050977113
s(I1
I66
I6
tp14
F208.7340741589431
s(I0
I51
I9
tp15
F886.396013799319
s(I0
I56
I0
tp16
F1121.9138184241024
s(I1
I4
I4
tp17
F141.74163293971782
s(I1
I2
I0
tp18
F61.79997353369858
s(I0
I37
I2
tp19
F691.5212496223327
s(I1
I36
I1
tp20
F66.11497450112924
s(I1
I67
I1
tp21
F112.99782162310034
s(I0
I29
I0
tp22
F360.4140218545981
s(I0
I86
I4
tp23
F297.03914062237635
s(I1
I13
I2
tp24
F127.3695178804456
s(I0
I19
I4
tp25
F363.98178236557567
s(I1
I28
I3
tp26
F158.1431732900972
s(I0
I44
I0
tp27
F1215.5595188502741
s(I0
I61
I5
tp28
F1039.484036427024
s(I0
I101
I4
tp29
F263.4678674708066
s(I1
I6
I4
tp30
F121.47339252334079
s(I1
I45
I1
tp31
F83.3143651168523
s(I0
I51
I1
tp32
F729.6829361103198
s(I1
I60
I4
tp33
F113.15288166202464
s(I0
I76
I3
tp34
F1210.1604815084042
s(I0
I9
I5
tp35
F379.58476907278674
s(I1
I54
I0
tp36
F71.6922569989571
s(I1
I5
I7
tp37
F219.37644786150878
s(I0
I83
I2
tp38
F283.14649180641305
s(I1
I35
I4
tp39
F143.422687241373
s(I0
I53
I8
tp40
F1095.4967915045395
s(I1
I40
I1
tp41
F135.46387295877747
s(I0
I1
I0
tp42
F68.57024074139798
s(I0
I80
I0
tp43
F162.42407568574765
s(I1
I82
I4
tp44
F140.71579303214946
s(I1
I78
I2
tp45
F45.14137537724546
s(I0
I39
I1
tp46
F1026.1894254883025
s(I0
I8
I2
tp47
F289.147348094846
s(I1
I58
I0
tp48
F89.91900974132152
s(I0
I14
I2
tp49
F254.24743952539205
s(I0
I71
I2
tp50
F1221.9712108258445
s(I0
I40
I5
tp51
F1104.4308593866588
s(I0
I93
I2
tp52
F252.4785624580402
s(I0
I63
I4
tp53
F1229.3836923322092
s(I1
I75
I0
tp54
F80.32105935919517
s(I0
I36
I5
tp55
F496.87312844489975
s(I1
I35
I2
tp56
F97.73142930013243
s(I0
I53
I0
tp57
F926.351308550626
s(I0
I78
I4
tp58
F1177.809648982745
s(I1
I37
I2
tp59
F158.09114346989816
s(I1
I76
I0
tp60
F103.42504694763132
s(I0
I68
I0
tp61
F943.2310558762715
s(I1
I14
I3
tp62
F140.67423169442782
s(I1
I29
I0
tp63
F68.94748552015548
s(I0
I60
I2
tp64
F753.2841367414958
s(I0
I33
I5
tp65
F427.16580613515765
s(I0
I105
I4
tp66
F165.3754738502813
s(I0
I50
I2
tp67
F689.978067509162
s(I0
I75
I2
tp68
F1129.7695508672211
s(I1
I32
I4
tp69
F191.72700098330216
s(I1
I6
I6
tp70
F159.55687396065298
s(I1
I46
I0
tp71
F31.611188481369112
s(I0
I57
I0
tp72
F1113.7411410272384
s(I1
I4
I0
tp73
F67.68097204351214
s(I0
I72
I0
tp74
F1249.2882902345739
s(I1
I74
I4
tp75
F167.26752669263527
s(I1
I1
I0
tp76
F43.376657406909544
s(I0
I95
I1
tp77
F246.5263230092218
s(I0
I38
I2
tp78
F958.2334654403971
s(I0
I60
I10
tp79
F922.8358253746583
s(I0
I13
I3
tp80
F290.9945944032781
s(I0
I30
I0
tp81
F359.76838909913823
s(I0
I70
I1
tp82
F1197.722120087847
s(I0
I87
I4
tp83
F283.6291697090845
s(I0
I45
I0
tp84
F927.4535126136407
s(I0
I102
I4
tp85
F250.74920881511116
s(I0
I35
I4
tp86
F490.25856428421986
s(I1
I44
I3
tp87
F111.7987532910544
s(I1
I70
I5
tp88
F224.22359652220194
s(I0
I77
I5
tp89
F1252.011934565048
s(I1
I14
I4
tp90
F159.52248736022364
s(I0
I67
I1
tp91
F1139.099119375378
s(I0
I84
I2
tp92
F336.27742596893404
s(I0
I37
I11
tp93
F882.8577028502173
s(I0
I17
I6
tp94
F422.3298336477784
s(I0
I42
I2
tp95
F1251.1827917710764
s(I0
I49
I3
tp96
F1052.47602287021
s(I0
I2
I0
tp97
F137.2557592531149
s(I1
I13
I5
tp98
F190.56653510000945
s(I1
I72
I7
tp99
F220.9285964056956
s(I0
I81
I0
tp100
F179.6114957866776
s(I0
I96
I0
tp101
F236.90947113093318
s(I1
I57
I0
tp102
F72.55771256930629
s(I1
I2
I1
tp103
F83.46440955223416
s(I0
I37
I3
tp104
F712.780855536542
s(I0
I54
I0
tp105
F1110.6060908635404
s(I0
I12
I4
tp106
F320.3812671851626
s(I0
I29
I1
tp107
F386.6853090271192
s(I0
I69
I0
tp108
F1041.589405455893
s(I0
I19
I5
tp109
F382.42795917040206
s(I1
I28
I0
tp110
F99.72589006337334
s(I0
I61
I6
tp111
F1058.766078338441
s(I0
I101
I5
tp112
F286.2382111360149
s(I1
I45
I0
tp113
F62.29762052507359
s(I0
I51
I6
tp114
F827.6286096659444
s(I0
I76
I2
tp115
F1190.5961987729293
s(I1
I39
I4
tp116
F98.1018678436529
s(I0
I9
I6
tp117
F402.2416283282885
s(I1
I54
I1
tp118
F93.07159617395864
s(I1
I5
I6
tp119
F197.91604007083907
s(I0
I36
I12
tp120
F628.9389610773487
s(I0
I58
I0
tp121
F1127.080233627359
s(I0
I1
I1
tp122
F90.27013936857709
s(I0
I73
I0
tp123
F1243.1200317020266
s(I1
I78
I0
tp124
F18.296019922873125
s(I1
I0
I0
tp125
F23.685120174334173
s(I1
I82
I5
tp126
F160.08025388657046
s(I0
I8
I1
tp127
F275.47722612391834
s(I1
I58
I1
tp128
F107.7585945973951
s(I0
I31
I0
tp129
F427.914516222958
s(I0
I40
I4
tp130
F1085.7561247998594
s(I0
I93
I3
tp131
F273.4869701268372
s(I0
I46
I0
tp132
F1001.1614376649596
s(I0
I63
I5
tp133
F1247.7691346354463
s(I0
I103
I4
tp134
F230.48994892325635
s(I0
I36
I4
tp135
F478.0065809259785
s(I1
I35
I1
tp136
F74.88580032951214
s(I0
I53
I1
tp137
F947.4944939198651
s(I1
I76
I1
tp138
F124.63188202818775
s(I1
I52
I0
tp139
F38.26196533896829
s(I1
I45
I4
tp140
F146.36459889218844
s(I0
I60
I1
tp141
F732.0901756623505
s(I1
I59
I6
tp142
F223.51037200295212
s(I0
I13
I4
tp143
F313.0392218190096
s(I0
I33
I6
tp144
F445.14602616885213
s(I0
I3
I0
tp145
F158.5725582694369
s(I0
I82
I0
tp146
F203.12536279050124
s(I0
I97
I0
tp147
F258.8097713829477
s(I1
I56
I0
tp148
F73.15339736778739
s(I1
I8
I0
tp149
F46.95412193191092
s(I0
I37
I12
tp150
F904.1173087644266
s(I0
I55
I0
tp151
F1118.75658954297
s(I0
I64
I4
tp152
F1237.8121815316383
s(I0
I60
I9
tp153
F901.6418642955131
s(I1
I66
I0
tp154
F90.68340297221485
s(I0
I70
I0
tp155
F1181.8091763174295
s(I0
I87
I5
tp156
F305.3097915558269
s(I1
I19
I0
tp157
F84.0851219578796
s(I0
I45
I1
tp158
F952.8663143978592
s(I0
I102
I7
tp159
F310.58113404027256
s(I1
I44
I0
tp160
F60.36203466659426
s(I0
I77
I6
tp161
F1272.0712877706492
s(I1
I77
I2
tp162
F133.03318673269888
s(I0
I67
I6
tp163
F1246.1922402366936
s(I0
I84
I1
tp164
F320.062023313858
s(I0
I37
I4
tp165
F734.0404614507515
s(I0
I17
I7
tp166
F441.85902775156444
s(I0
I59
I0
tp167
F1125.5762247415544
s(I0
I12
I3
tp168
F296.70507413250823
s(I0
I49
I4
tp169
F1070.0447388119308
s(I0
I74
I0
tp170
F1050.8025755333772
s(I0
I19
I2
tp171
F327.08942875592305
s(I1
I72
I4
tp172
F154.33796525279956
s(I1
I7
I0
tp173
F25.153635303841966
s(I1
I39
I3
tp174
F78.87582633601447
s(I0
I36
I11
tp175
F610.0724135584273
s(I0
I16
I0
tp176
F288.1820293585134
s(I1
I2
I2
tp177
F105.12884557076974
s(I0
I47
I0
tp178
F1014.437401663366
s(I1
I11
I0
tp179
F42.76233532979531
s(I0
I29
I2
tp180
F412.9565961996402
s(I0
I69
I1
tp181
F1061.9376052984048
s(I1
I78
I1
tp182
F31.71869765005929
s(I1
I28
I1
tp183
F119.19831780561462
s(I0
I61
I7
tp184
F1078.048120249858
s(I0
I101
I6
tp185
F309.0085548012233
s(I1
I45
I3
tp186
F125.34785430040972
s(I0
I51
I7
tp187
F847.2177443770693
s(I1
I60
I2
tp188
F80.63428340982409
s(I0
I4
I0
tp189
F196.69564772391692
s(I0
I76
I1
tp190
F1171.0319160374543
s(I0
I93
I4
tp191
F294.4953777956342
s(I1
I54
I2
tp192
F114.45093534896017
s(I1
I5
I1
tp193
F90.61400111749089
s(I0
I83
I0
tp194
F232.77678170708953
s(I0
I36
I3
tp195
F459.1400334070572
s(I0
I98
I0
tp196
F256.44604565619005
s(I1
I63
I0
tp197
F21.99791443707396
s(I0
I1
I2
tp198
F111.97003799575621
s(I0
I73
I1
tp199
F1266.1702708969417
s(I0
I18
I1
tp200
F328.36525758999204
s(I1
I82
I6
tp201
F179.44471474099146
s(I1
I32
I2
tp202
F152.9405470034439
s(I0
I8
I0
tp203
F261.80710415299075
s(I1
I58
I2
tp204
F125.5981794534687
s(I1
I65
I0
tp205
F68.01074554677353
s(I0
I71
I0
tp206
F1183.4764057109455
s(I0
I40
I3
tp207
F1067.0813902130603
s(I1
I18
I0
tp208
F49.484739032008434
s(I0
I63
I2
tp209
F1192.6128077257351
s(I1
I4
I3
tp210
F123.2264677156664
s(I0
I17
I8
tp211
F461.3882218553504
s(I1
I35
I0
tp212
F52.04017135889184
s(I0
I53
I2
tp213
F968.6376792891044
s(I1
I27
I2
tp214
F147.16644446431837
s(I0
I38
I4
tp215
F993.0225484154898
s(I0
I60
I0
tp216
F710.8962145832052
s(I1
I59
I5
tp217
F201.5855789737725
s(I0
I13
I5
tp218
F335.08384923474097
s(I1
I61
I1
tp219
F147.9144711029631
s(I0
I3
I1
tp220
F172.33461241454262
s(I0
I75
I0
tp221
F1082.1057865991384
s(I0
I20
I2
tp222
F303.3081866709057
s(I1
I6
I0
tp223
F45.30642964871635
s(I0
I35
I2
tp224
F447.0801433093812
s(I1
I70
I4
tp225
F204.37011221248093
s(I0
I10
I1
tp226
F250.0896735546317
s(I1
I56
I1
tp227
F91.22777645270646
s(I1
I15
I2
tp228
F83.7622620580905
s(I0
I17
I0
tp229
F305.1546690250625
s(I1
I77
I0
tp230
F100.86394087242225
s(I0
I32
I0
tp231
F425.7310071409782
s(I1
I33
I1
tp232
F104.35920141659851
s(I0
I64
I3
tp233
F1217.553741628528
s(I0
I60
I8
tp234
F880.4479032163678
s(I1
I66
I1
tp235
F110.35851483666956
s(I1
I10
I0
tp236
F66.91099239677285
s(I0
I30
I2
tp237
F409.7284324223408
s(I0
I87
I2
tp238
F240.2679260155998
s(I0
I45
I2
tp239
F978.2791161820779
s(I0
I102
I6
tp240
F290.63715896521876
s(I1
I44
I1
tp241
F77.5076075414143
s(I1
I51
I2
tp242
F94.1963273456084
s(I0
I5
I0
tp243
F205.35240951557392
s(I0
I67
I7
tp244
F1267.6108644089568
s(I0
I84
I0
tp245
F303.84662065878194
s(I0
I37
I5
tp246
F755.3000673649609
s(I1
I59
I4
tp247
F179.66078594459293
s(I0
I99
I0
tp248
F139.11942427335805
s(I0
I12
I2
tp249
F273.0288810798539
s(I0
I49
I5
tp250
F1087.6134547536517
s(I1
I62
I0
tp251
F131.54209788544483
s(I0
I19
I3
tp252
F345.53560556074933
s(I1
I28
I6
tp253
F216.5604565168211
s(I1
I72
I5
tp254
F176.5348423037649
s(I0
I34
I1
tp255
F359.6429433351849
s(I1
I39
I2
tp256
F59.64978482837607
s(I0
I9
I0
tp257
F266.3004727952778
s(I1
I5
I8
tp258
F240.83685565217837
s(I1
I64
I0
tp259
F43.79339593421373
s(I0
I36
I10
tp260
F591.2058660395061
s(I0
I88
I0
tp261
F176.19191310760613
s(I1
I2
I3
tp262
F126.79328158930532
s(I1
I17
I0
tp263
F25.98002923331516
s(I1
I34
I0
tp264
F31.524097790919825
s(I0
I79
I2
tp265
F257.87467588456104
s(I0
I69
I2
tp266
F1082.2858051409169
s(I0
I86
I1
tp267
F245.80261632896452
s(I0
I61
I0
tp268
F943.0738268699395
s(I1
I45
I2
tp269
F104.33110970863102
s(I0
I51
I4
tp270
F788.4503402436945
s(I0
I40
I10
tp271
F1197.804532320655
s(I0
I76
I0
tp272
F1151.4676333019793
s(I1
I54
I3
tp273
F135.8302745239617
s(I1
I5
I0
tp274
F69.15359332682125
s(I0
I83
I1
tp275
F257.96163675675126
s(I0
I36
I2
tp276
F440.27348588813595
s(I1
I31
I4
tp277
F188.49072419905184
s(I1
I40
I4
tp278
F190.96184168138825
s(I1
I70
I7
tp279
F263.9305651416439
s(I0
I73
I2
tp280
F1289.2205100918568
s(I0
I18
I0
tp281
F306.3818005121103
s(I0
I33
I0
tp282
F337.26470596668537
s(I1
I32
I3
tp283
F172.33377399337303
s(I0
I61
I8
tp284
F1097.330162161275
s(I1
I58
I3
tp285
F143.43776430954227
s(I1
I9
I0
tp286
F63.15924307395112
s(I1
I80
I2
tp287
F82.8589089884082
s(I0
I71
I1
tp288
F1202.723808268395
s(I0
I40
I2
tp289
F1048.406655626261
s(I0
I63
I3
tp290
F1210.9982500289723
s(I0
I103
I2
tp291
F197.12502106286257
s(I0
I53
I3
tp292
F989.7808646583435
s(I0
I6
I0
tp293
F217.8688329178009
s(I0
I78
I1
tp294
F1106.0631133489935
s(I1
I69
I2
tp295
F166.66555180618144
s(I1
I27
I1
tp296
F124.29573715549212
s(I0
I85
I0
tp297
F303.85431458375433
s(I0
I60
I7
tp298
F859.2539421372223
s(I0
I100
I0
tp299
F158.2100911073697
s(I0
I13
I6
tp300
F357.12847665047246
s(I1
I61
I0
tp301
F130.15984451770422
s(I1
I68
I2
tp302
F105.0538013578737
s(I0
I75
I1
tp303
F1105.9376687331796
s(I0
I20
I1
tp304
F287.990594829481
s(I1
I6
I1
tp305
F64.34817036737246
s(I0
I35
I3
tp306
F468.6693537968005
s(I0
I10
I0
tp307
F233.66085693160153
s(I1
I71
I0
tp308
F43.431583169161684
s(I1
I15
I1
tp309
F68.97818967932899
s(I0
I17
I1
tp310
F324.6838631288485
s(I0
I89
I0
tp311
F187.49904621726995
s(I1
I16
I0
tp312
F17.007759883768998
s(I0
I104
I0
tp313
F69.39242684257508
s(I0
I19
I8
tp314
F437.76648958488096
s(I1
I33
I0
tp315
F88.32971429198041
s(I1
I72
I2
tp316
F109.94421115086885
s(I0
I64
I2
tp317
F1197.2953017254179
s(I1
I66
I2
tp318
F130.03362670112426
s(I1
I10
I1
tp319
F90.36166855948268
s(I0
I70
I2
tp320
F1213.6350638582646
s(I0
I87
I3
tp321
F261.94854786234214
s(I0
I62
I0
tp322
F1126.8101925423127
s(I0
I102
I1
tp323
F190.91728358994976
s(I0
I52
I4
tp324
F1018.304306718431
s(I1
I51
I1
tp325
F74.31162123783537
s(I0
I77
I0
tp326
F1151.7151685370425
s(I0
I67
I4
tp327
F1203.3549918921674
s(I0
I37
I6
tp328
F776.5596732791703
s(I0
I12
I1
tp329
F249.35268802719958
s(I0
I49
I6
tp330
F1105.1821706953726
s(I1
I62
I1
tp331
F152.06123120618486
s(I1
I69
I1
tp332
F146.01110421120347
s(I1
I13
I6
tp333
F211.63220750653073
s(I0
I19
I0
tp334
F290.19707514627044
s(I1
I28
I7
tp335
F236.03288425906243
s(I0
I34
I0
tp336
F337.33349416475295
s(I1
I45
I5
tp337
F167.3813434839671
s(I1
I5
I4
tp338
F154.99522448949983
s(I1
I39
I1
tp339
F40.42374332073766
s(I0
I9
I1
tp340
F288.9573320507796
s(I1
I54
I4
tp341
F157.2096136989632
s(I0
I36
I9
tp342
F572.3393185205848
s(I1
I31
I3
tp343
F169.81666982784498
s(I1
I53
I0
tp344
F50.49431150301488
s(I1
I2
I4
tp345
F148.4577176078409
s(I1
I70
I8
tp346
F283.7840494513649
s(I0
I7
I0
tp347
F240.20924589380672
s(I1
I82
I0
tp348
F63.25794961446548
s(I0
I69
I3
tp349
F1102.634004983429
s(I0
I86
I0
tp350
F228.72377489782724
s(I0
I44
I4
tp351
F1282.9004727400306
s(I0
I61
I1
tp352
F962.3558687813563
s(I0
I101
I0
tp353
F172.38649280997322
s(I0
I51
I5
tp354
F808.0394749548194
s(I0
I40
I9
tp355
F1179.1297977338559
s(I1
I5
I3
tp356
F133.53481669883018
s(I1
I4
I2
tp357
F104.71130249161499
s(I0
I36
I1
tp358
F421.4069383692147
s(I1
I35
I6
tp359
F189.11394518261358
s(I0
I53
I4
tp360
F1010.9240500275828
s(I0
I11
I0
tp361
F212.0648078318667
s(I1
I70
I0
tp362
F124.956174973597
s(I0
I18
I3
tp363
F372.3321717457555
s(I0
I90
I0
tp364
F232.59638030497996
s(I1
I23
I0
tp365
F118.60562735198347
s(I0
I33
I1
tp366
F355.24492600037985
s(I0
I105
I0
tp367
F90.4324413232239
s(I1
I32
I0
tp368
F114.15409302358559
s(I1
I28
I8
tp369
F255.5053120013037
s(I1
I58
I4
tp370
F161.27734916561587
s(I0
I40
I1
tp371
F1029.731921039462
s(I0
I63
I0
tp372
F1155.8419231192609
s(I0
I103
I3
tp373
F213.80748499305946
s(I1
I60
I3
tp374
F96.89358253592437
s(I1
I74
I0
tp375
F78.8701601312148
s(I1
I27
I0
tp376
F101.42502984666582
s(I0
I78
I0
tp377
F1082.1476014710763
s(I0
I68
I4
tp378
F1021.6170555725964
s(I0
I85
I1
tp379
F320.0851050887752
s(I0
I60
I6
tp380
F838.059981058077
s(I1
I59
I3
tp381
F157.7359929154133
s(I1
I61
I3
tp382
F183.42372427348084
s(I0
I20
I0
tp383
F272.6730029880563
s(I1
I6
I2
tp384
F83.38991108602856
s(I0
I102
I8
tp385
F330.52510911532636
s(I0
I35
I0
tp386
F403.90172233454246
s(I0
I52
I3
tp387
F995.521064306781
s(I0
I10
I3
tp388
F282.947306800692
s(I1
I60
I0
tp389
F48.11568515762355
s(I0
I63
I8
tp390
F1302.9254615451578
s(I1
I13
I4
tp391
F169.50086269348816
s(I0
I17
I2
tp392
F344.2130572326344
s(I0
I89
I1
tp393
F204.04272657060807
s(I1
I33
I3
tp394
F136.41817566583467
s(I1
I72
I3
tp395
F132.14108820183418
s(I1
I48
I2
tp396
F87.65144279883467
s(I0
I24
I0
tp397
F383.53218282262037
s(I0
I64
I1
tp398
F1177.0368618223076
s(I1
I66
I3
tp399
F149.70873856557898
s(I1
I10
I2
tp400
F113.81234472219249
s(I1
I81
I0
tp401
F40.46781262524572
s(I0
I51
I10
tp402
F905.9851485104439
s(I0
I87
I0
tp403
F196.90668232211505
s(I1
I44
I4
tp404
F128.94432616587443
s(I0
I102
I0
tp405
F170.97330851489596
s(I1
I51
I0
tp406
F54.42691513006233
s(I0
I77
I1
tp407
F1171.7745217426436
s(I0
I67
I5
tp408
F1224.7736160644306
s(I0
I37
I7
tp409
F797.8192791933797
s(I1
I36
I2
tp410
F83.1133862528276
s(I0
I12
I0
tp411
F225.67649497454522
s(I0
I69
I4
tp412
F1122.9822048259407
s(I1
I62
I2
tp413
F172.58036452692494
s(I1
I69
I0
tp414
F125.3566566162255
s(I1
I13
I1
tp415
F106.30384547392431
s(I0
I19
I1
tp416
F308.6432519510967
s(I0
I91
I0
tp417
F234.38745604921883
s(I0
I44
I3
tp418
F1266.0652342675914
s(I1
I22
I0
tp419
F78.6865814500416
s(I0
I106
I0
tp420
F92.10714502044515
s(I0
I51
I2
tp421
F749.2720708214447
s(I1
I39
I0
tp422
F21.19770181309925
s(I0
I9
I2
tp423
F311.6141913062814
s(I0
I36
I8
tp424
F553.4727710016635
s(I1
I31
I2
tp425
F151.14261545663817
s(I1
I2
I5
tp426
F170.12215362637647
s(I1
I14
I6
tp427
F197.21899869181533
s(I1
I40
I2
tp428
F153.96319586631438
s(I0
I48
I0
tp429
F1017.152094658373
s(I1
I73
I0
tp430
F61.136253917246364
s(I0
I79
I0
tp431
F205.95709008267312
s(I1
I82
I1
tp432
F82.62241046888647
s(I1
I26
I0
tp433
F73.78483825144616
s(I1
I3
I0
tp434
F54.695572477958606
s(I0
I86
I3
tp435
F279.9602991912391
s(I0
I39
I2
tp436
F1042.5024963743288
s(I1
I43
I0
tp437
F39.236865054279654
s(I0
I61
I2
tp438
F981.6379106927734
s(I0
I101
I1
tp439
F195.15683647518154
s(I0
I14
I1
tp440
F232.7139044414883
s(I0
I40
I8
tp441
F1160.4550631470565
s(I0
I76
I6
tp442
F1268.853329714829
s(I0
I21
I0
tp443
F324.23749899931823
s(I1
I5
I2
tp444
F112.07440890816054
s(I1
I60
I1
tp445
F64.37498428372382
s(I0
I36
I0
tp446
F402.5403908502934
s(I1
I35
I5
tp447
F166.2683162119933
s(I0
I53
I5
tp448
F1032.067235396822
s(I1
I37
I1
tp449
F131.4997229334096
s(I0
I68
I3
tp450
F1002.0205556485153
s(I1
I70
I1
tp451
F144.809659283318
s(I1
I14
I0
tp452
F84.12946469704029
s(I0
I18
I2
tp453
F350.34871466787376
s(I0
I33
I2
tp454
F373.22514603407427
s(I0
I105
I1
tp455
F109.16819945498825
s(I0
I50
I1
tp456
F669.3357344402208
s(I1
I32
I1
tp457
F133.5473200135147
s(I0
I25
I0
tp458
F356.3369328288799
s(I1
I58
I5
tp459
F179.11693402168947
s(I1
I80
I0
tp460
F38.4597066482708
s(I0
I40
I0
tp461
F1011.0571864526626
s(I0
I63
I1
tp462
F1174.227365422498
s(I0
I103
I0
tp463
F163.7600932024688
s(I0
I0
I2
tp464
F50.03102303305371
s(I1
I74
I1
tp465
F100.96950177156991
s(I1
I50
I0
tp466
F100.47779507920052
s(I1
I15
I0
tp467
F54.194117300567484
s(I0
I78
I3
tp468
F1153.894137104828
s(I0
I95
I2
tp469
F264.02260982087193
s(I0
I85
I2
tp470
F336.3158955937961
s(I0
I38
I1
tp471
F940.8389239528508
s(I0
I60
I5
tp472
F816.8660199789317
s(I1
I59
I2
tp473
F135.8111998862337
s(I0
I13
I0
tp474
F224.86071215608382
s(I1
I61
I2
tp475
F165.669097688222
s(I1
I68
I0
tp476
F65.1512755144224
s(I0
I92
I0
tp477
F189.59237466332434
s(I1
I6
I3
tp478
F102.43165180468468
s(I1
I21
I0
tp479
F83.3175177762149
s(I0
I35
I1
tp480
F425.4909328219618
s(I0
I107
I0
tp481
F121.19864059413838
s(I0
I52
I2
tp482
F972.7378218951312
s(I1
I38
I0
tp483
F102.77385335077885
s(I0
I10
I2
tp484
F266.5184901776619
s(I0
I67
I2
tp485
F1160.5177435476412
s(I0
I37
I8
tp486
F819.078885107589
s(I0
I17
I3
tp487
F363.74225133642045
s(I0
I89
I2
tp488
F220.58640692394613
s(I0
I42
I1
tp489
F1236.259643559963
s(I0
I49
I0
tp490
F999.7698750450477
s(I1
I33
I2
tp491
F120.38868854121658
s(I1
I72
I0
tp492
F65.55045704893816
s(I0
I64
I0
tp493
F1156.7784219191974
s(I1
I66
I4
tp494
F169.3838504300337
s(I1
I25
I0
tp495
F43.55461003450599
s(I0
I87
I1
tp496
F218.58730416885743
s(I1
I42
I0
tp497
F19.134581469327554
s(I0
I102
I3
tp498
F230.80523374005736
s(I0
I77
I2
tp499
F1191.8338749482448
s(I0
I22
I0
tp500
F354.2599060505388
s(I0
I37
I0
tp501
F649.0020377939139
s(I1
I67
I3
tp502
F155.86712106725082
s(I0
I69
I5
tp503
F1143.3304046684527
s(I1
I62
I3
tp504
F193.09949784766502
s(I1
I69
I3
tp505
F187.3199994011594
s(I1
I13
I0
tp506
F85.23817306740301
s(I0
I19
I6
tp507
F400.87413597522834
s(I1
I28
I5
tp508
F197.0880287745798
s(I1
I72
I8
tp509
F243.12547345666093
s(I0
I44
I2
tp510
F1249.2299957951525
s(I1
I22
I1
tp511
F93.68792714710914
s(I0
I34
I2
tp512
F381.95239250561684
s(I0
I51
I3
tp513
F768.8612055325697
s(I0
I9
I3
tp514
F334.27105056178317
s(I0
I26
I0
tp515
F318.57287608557755
s(I1
I5
I5
tp516
F176.45563228016948
s(I1
I31
I1
tp517
F132.4685610854313
s(I0
I41
I0
tp518
F1210.5084104286736
s(I1
I2
I6
tp519
F191.78658964491206
s(I1
I40
I3
tp520
F172.46251877385134
s(I1
I49
I0
tp521
F104.99675813988493
s(I0
I79
I1
tp522
F231.9158829836171
s(I1
I82
I2
tp523
F101.98687132330745
s(I0
I86
I2
tp524
F262.8814577601018
s(I0
I61
I3
tp525
F1000.9199526041903
s(I0
I101
I2
tp526
F217.9271801403899
s(I0
I14
I0
tp527
F211.18036935758454
s(I0
I40
I7
tp528
F1141.7803285602572
s(I0
I76
I5
tp529
F1249.289046979354
s(I0
I93
I0
tp530
F210.4617471204462
s(I0
I63
I6
tp531
F1266.1545769386835
s(I1
I83
I0
tp532
F62.204840638074714
s(I1
I20
I0
tp533
F70.31308345357617
s(I0
I36
I7
tp534
F534.6062234827423
s(I0
I108
I0
tp535
F118.18707435641254
s(I0
I53
I6
tp536
F1053.2104207660611
s(I1
I37
I0
tp537
F104.90830239692104
s(I1
I76
I2
tp538
F145.83871710874416
s(I0
I68
I2
tp539
F982.4240557244341
s(I1
I70
I2
tp540
F164.66314359303897
s(I1
I14
I1
tp541
F102.97772036283612
s(I0
I33
I3
tp542
F391.20536606776875
s(I0
I105
I2
tp543
F127.9039575867526
s(I0
I50
I0
tp544
F648.6934013712797
s(I1
I79
I0
tp545
F19.472293561258248
s(I0
I65
I0
tp546
F1256.1271403859382
s(I1
I58
I6
tp547
F196.95651887776307
s(I1
I80
I1
tp548
F60.65930781833951
s(I1
I24
I0
tp549
F123.36762958838811
s(I1
I69
I4
tp550
F207.97444699613737
s(I1
I41
I0
tp551
F126.69388733406447
s(I0
I103
I1
tp552
F180.44255713266568
s(I0
I0
I1
tp553
F34.65248624354424
s(I1
I74
I2
tp554
F123.06884341192504
s(I0
I78
I2
tp555
F1129.9786252269105
s(I0
I23
I0
tp556
F383.46384024680384
s(I0
I85
I3
tp557
F352.54668609881696
s(I0
I38
I0
tp558
F923.4443824653044
s(I0
I60
I4
tp559
F795.6720588997864
s(I1
I59
I1
tp560
F113.88640685705411
s(I0
I13
I1
tp561
F246.9053395718152
s(I0
I87
I6
tp562
F326.99041340256923
s(I1
I68
I1
tp563
F85.10253843614804
s(I1
I12
I0
tp564
F60.75370898766455
s(I0
I52
I1
tp565
F949.9545794834812
s(I1
I38
I1
tp566
F125.09637579498302
s(I1
I77
I1
tp567
F116.94856380256056
s(I0
I27
I0
tp568
F327.2266827646876
s(I0
I67
I3
tp569
F1181.9363677199044
s(I1
I4
I1
tp570
F86.19613726756356
s(I0
I37
I9
tp571
F840.3384910217984
s(I0
I17
I4
tp572
F383.27144544020643
s(I0
I42
I0
tp573
F1221.3364953488497
s(I0
I49
I1
tp574
F1017.3385909867684
s(I1
I62
I4
tp575
F213.6186311684051
s(I1
I72
I1
tp576
F87.74733409990351
s(I1
I48
I0
tp577
F53.117938220707586
s(I1
I66
I5
tp578
F189.05896229448837
s(I0
I51
I8
tp579
F866.8068790881941
s(I0
I102
I2
tp580
F210.86125866500356
s(I0
I15
I0
tp581
F272.9940969056006
s(I1
I70
I6
tp582
F244.07708083192296
s(I0
I77
I3
tp583
F1211.893228153846
s(I0
I94
I0
tp584
F210.1197180388972
s(I1
I14
I5
tp585
F178.37074302601945
s(I0
I37
I1
tp586
F670.2616437081233
s(I1
I36
I0
tp587
F49.11656274943088
s(I1
I67
I2
tp588
F134.43247134517557
s(I0
I69
I6
tp589
F1163.6786045109648
s(I1
I67
I4
tp590
F177.30177078932604
s(I1
I13
I3
tp591
F148.43519028696687
s(I0
I19
I7
tp592
F419.3203127800547
s(I1
I28
I2
tp593
F138.67074554785592
s(I0
I44
I1
tp594
F1232.3947573227133
s(I0
I61
I4
tp595
F1020.2019945156071
s(I1
I22
I2
tp596
F108.68927284417667
s(I1
I45
I6
tp597
F188.39808807574582
s(I0
I51
I0
tp598
F710.093801399195
s(I0
I9
I4
tp599
F356.92790981728496
s(I0
I66
I0
tp600
F1260.9908310564795
s(I1
I31
I0
tp601
F113.79450671422445
s(I1
I40
I0
tp602
F116.96455005124055
s(I1
I82
I3
tp603
F121.35133217772845
s(I1
I28
I4
tp604
F177.61560103233853
s(I0
I39
I0
tp605
F1009.8763546022763
s(I0
I101
I3
tp606
F240.69752380559822
s(I0
I40
I6
tp607
F1123.1055939734579
s(I0
I76
I4
tp608
F1229.724764243879
s(I0
I93
I1
tp609
F231.47015478924322
s(I0
I63
I7
tp610
F1284.5400192419206
s(I0
I36
I6
tp611
F515.739675963821
s(I1
I35
I3
tp612
F120.57705827075272
s(I0
I53
I7
tp613
F1074.3536061353004
s(I0
I28
I0
tp614
F337.7764871090879
s(I0
I68
I1
tp615
F962.8275558003528
s(I0
I85
I4
tp616
F368.7774766038379
s(I1
I70
I3
tp617
F184.51662790275998
s(I1
I14
I2
tp618
F121.82597602863196
s(I0
I18
I4
tp619
F394.31562882363727
s(I0
I43
I0
tp620
F1226.0942663391088
s(I0
I60
I3
tp621
F774.4780978206411
s(I0
I33
I4
tp622
F409.18558610146323
s(I0
I105
I3
tp623
F146.63971571851692
s(I1
I61
I4
tp624
F201.17835085873975
s(I0
I3
I2
tp625
F186.09666655964833
s(I1
I55
I0
tp626
F62.55939761839209
s(I1
I6
I5
tp627
F140.51513324199686
s(I0
I67
I8
tp628
F1289.0294885812198
s(I1
I56
I2
tp629
F109.30215553762554
s(I0
I0
I0
tp630
F19.273949454034774
s(I1
I74
I3
tp631
F145.16818505228014
s(I0
I95
I0
tp632
F229.0300361975717
s(I0
I38
I3
tp633
F975.6280069279435
s(I1
I59
I0
tp634
F91.96161382787453
s(I0
I13
I2
tp635
F268.94996698754665
s(I0
I30
I1
tp636
F384.74841076073955
s(I1
I67
I0
tp637
F91.56317190102511
s(I0
I102
I5
tp638
F270.69318389016496
s(I1
I44
I2
tp639
F94.65318041623435
s(I0
I52
I0
tp640
F927.1713370718313
sa(dp641
g2
F5.248414977550132
sg3
F64.92986758641786
sg4
F53.396902861625975
sg5
F8.017379833520586
sg6
F23.29048555018679
sg7
F47.27596512695667
sg8
F65.02615124675668
sg9
F66.45665136272468
sg10
F18.888097473358467
sg11
F64.84838992548292
sg12
F61.63483839854651
sg13
F65.9051508307779
sg14
F62.87212083841209
sg15
F23.13470969049249
sg16
F19.192596083811146
sg17
F65.25221527401492
sg18
F66.00527444879624
sg19
F29.82589789843172
sg20
F65.98808468233612
sg21
F64.07647151778691
sg22
F45.229536906860716
sg23
F53.71060809930129
sg24
F63.92930699953225
sg25
F48.98509602654907
sg26
F64.2908912612484
sg27
F12.241240173047439
sg28
F10.224754847474326
sg29
F57.2156550697869
sg30
F64.83811883048466
sg31
F66.20184413244293
sg32
F27.826876061401958
sg33
F64.71001041470488
sg34
F6.071835418268225
sg35
F50.11504891462722
sg36
F64.89648167700834
sg37
F62.35927138031717
sg38
F54.65077984266209
sg39
F64.84813279707991
sg40
F19.458468983459902
sg41
F65.10309573198865
sg42
F64.93480885023138
sg43
F57.54991561514501
sg44
F63.70049611641799
sg45
F67.5565762703877
sg46
F18.200160484138845
sg47
F52.99788793611199
sg48
F64.96051123467699
sg49
F50.99366223465978
sg50
F6.106537310799231
sg51
F14.695654207034018
sg52
F55.38275509447151
sg53
F5.909962126024871
sg54
F66.06218138116243
sg55
F37.36810015894144
sg56
F65.44307394230486
sg57
F22.21672969821077
sg58
F7.059608758327692
sg59
F63.98761156667581
sg60
F65.59304794278204
sg61
F13.804785328804316
sg62
F65.10635704514556
sg63
F65.73112910018736
sg64
F24.89918867103359
sg65
F44.491057097389735
sg66
F64.10632688564561
sg67
F29.11601281498694
sg68
F7.131655361402927
sg69
F63.962508972785805
sg70
F64.3569019524975
sg71
F66.73543113698099
sg72
F19.237863081363614
sg73
F65.9786481706321
sg74
F5.848442882378564
sg75
F64.8725454826708
sg76
F66.62400863169637
sg77
F55.48622954232454
sg78
F19.734913588602275
sg79
F14.813285486467294
sg80
F53.1759331126299
sg81
F45.19915520020714
sg82
F6.294050915829728
sg83
F55.35344117740472
sg84
F21.012102329263445
sg85
F57.206790616543785
sg86
F41.93461814454934
sg87
F65.73398477189569
sg88
F61.02349195112142
sg89
F5.092705280619639
sg90
F64.94874996500508
sg91
F7.69617502071322
sg92
F53.91216256184524
sg93
F22.421853261059344
sg94
F46.773468241476046
sg95
F12.266489774135666
sg96
F18.70565092284462
sg97
F59.278272709779614
sg98
F62.214681867653205
sg99
F61.22010244461347
sg100
F56.69443622277768
sg101
F55.55171207241151
sg102
F65.36079859952837
sg103
F65.44152679192788
sg104
F29.17868357575394
sg105
F19.264915396933365
sg106
F53.03320264183985
sg107
F44.90766723243028
sg108
F9.87972600012694
sg109
F48.773701540348334
sg110
F64.99619155593025
sg111
F9.605799588607974
sg112
F56.96862628106112
sg113
F66.49873797587058
sg114
F24.66927872951782
sg115
F6.39285474554746
sg116
F65.56736364717521
sg117
F49.980927403795135
sg118
F64.20090934441222
sg119
F62.75420008263696
sg120
F31.90093825651283
sg121
F19.174269396533678
sg122
F63.0151706134911
sg123
F5.909312139668368
sg124
F67.6357986650755
sg125
F67.26263227523152
sg126
F63.373616049119825
sg127
F53.036694088836335
sg128
F64.54037071112893
sg129
F44.4770097604746
sg130
F15.25447087902136
sg131
F55.255150350874175
sg132
F19.509626683405546
sg133
F5.74137502529578
sg134
F58.5092966562951
sg135
F38.28802799410999
sg136
F65.86936079968346
sg137
F21.713945201818387
sg138
F65.1898765531919
sg139
F66.41258165085499
sg140
F65.37409487802564
sg141
F26.359491493769426
sg142
F63.75546014858316
sg143
F52.795141930078984
sg144
F44.41360471535619
sg145
F57.77417226493088
sg146
F56.07063247546737
sg147
F55.46390482381917
sg148
F65.41237589509454
sg149
F66.9617510922938
sg150
F21.594839953397518
sg151
F19.240554910251625
sg152
F6.117571357756634
sg153
F15.93159678599382
sg154
F64.4415363944545
sg155
F6.413605353988826
sg156
F55.15973153867622
sg157
F66.47977031423913
sg158
F20.522044105927808
sg159
F56.2059864856404
sg160
F66.53824376497548
sg161
F5.012872469131859
sg162
F65.47280588847066
sg163
F6.001559692651929
sg164
F54.05587747821528
sg165
F28.561899177010936
sg166
F46.385168716814846
sg167
F19.192574221227805
sg168
F53.180205297455565
sg169
F18.576653275991113
sg170
F9.347987242528603
sg171
F49.341335579399015
sg172
F63.09380618900126
sg173
F67.34532471965798
sg174
F65.93792224308753
sg175
F32.558013215057706
sg176
F49.65517634821855
sg177
F64.98353805260965
sg178
F19.431255647269
sg179
F66.9761898418789
sg180
F44.74470398404061
sg181
F9.520914010331364
sg182
F67.58419858501202
sg183
F64.71865421680305
sg184
F9.020304390432305
sg185
F56.83755338132926
sg186
F65.87960766967913
sg187
F24.12169128856103
sg188
F65.33221142833372
sg189
F55.36860594078428
sg190
F6.603859677325299
sg191
F55.162660312563794
sg192
F63.933886570218824
sg193
F65.23520359586644
sg194
F55.36955488992292
sg195
F39.225168413188804
sg196
F55.474286995828415
sg197
F67.48073672954658
sg198
F61.23668272707548
sg199
F5.783269515083156
sg200
F48.991352033185315
sg201
F63.21038677037039
sg202
F64.32123857110295
sg203
F53.12289822968129
sg204
F64.19095466409745
sg205
F65.33330691110515
sg206
F6.418521889191
sg207
F15.86579649000586
sg208
F66.73405891290601
sg209
F6.367051309352034
sg210
F65.3179814303914
sg211
F46.18912824221878
sg212
F66.41402224660982
sg213
F21.266724189007924
sg214
F64.73402089618546
sg215
F18.669072595336353
sg216
F27.868738778699115
sg217
F63.85985136711061
sg218
F52.53973524507818
sg219
F64.13258475473238
sg220
F56.895756108715254
sg221
F8.288979301211905
sg222
F47.49902042433285
sg223
F66.71272025042931
sg224
F42.244370795943844
sg225
F61.43544578744856
sg226
F53.665903316812916
sg227
F65.11970449166648
sg228
F66.65188192675582
sg229
F49.282518689799964
sg230
F65.82278154598414
sg231
F44.48652116112957
sg232
F65.15744459918615
sg233
F6.262539661901898
sg234
F17.087847859902883
sg235
F64.00572103444644
sg236
F66.75638924711718
sg237
F44.54656479378425
sg238
F55.76029756160718
sg239
F19.856454663874793
sg240
F56.4297829635065
sg241
F66.38652299017214
sg242
F65.62234327341069
sg243
F54.94664200505163
sg244
F5.769373795203405
sg245
F54.34151216092584
sg246
F27.97572812642835
sg247
F63.95080875406063
sg248
F59.68717151993589
sg249
F53.47149660782965
sg250
F18.474055912435006
sg251
F64.47294486197583
sg252
F49.14591509432826
sg253
F63.459887530629054
sg254
F62.25870072718106
sg255
F44.804692923651686
sg256
F66.36379408165513
sg257
F52.73443489667581
sg258
F62.162119669694704
sg259
F66.61769405773124
sg260
F33.230170564471656
sg261
F56.83412237817975
sg262
F64.63056808317543
sg263
F67.10198770246336
sg264
F66.9885081458147
sg265
F55.06753717180467
sg266
F8.931162399159462
sg267
F54.63503102001521
sg268
F13.853159375067413
sg269
F66.0318351922057
sg270
F25.871373542985424
sg271
F12.693704869389572
sg272
F6.78189207266775
sg273
F63.76748475666509
sg274
F65.82122210667677
sg275
F54.954814818087165
sg276
F40.17966911413842
sg277
F62.783810348373706
sg278
F64.82873809096084
sg279
F60.20637282808767
sg280
F5.723974011858667
sg281
F49.33705897333128
sg282
F46.0050703514299
sg283
F64.12817156266529
sg284
F8.467418076853608
sg285
F63.911880197315575
sg286
F66.81014227492336
sg287
F66.64293974565759
sg288
F6.2797343390034674
sg289
F16.529793839745857
sg290
F6.118586067410776
sg291
F58.64889191524588
sg292
F20.8759540516814
sg293
F54.22827972822977
sg294
F7.820854241119276
sg295
F61.01204504847647
sg296
F64.84833453159727
sg297
F54.200101590260076
sg298
F18.283427460300192
sg299
F59.006246959990385
sg300
F52.41081045847389
sg301
F64.40997205068736
sg302
F63.201233619836486
sg303
F7.676513793512985
sg304
F48.65043127886383
sg305
F66.22844877502206
sg306
F42.04430753668934
sg307
F53.82424232025293
sg308
F66.86387299640894
sg309
F66.74914477806293
sg310
F48.697783301599024
sg311
F56.69244040939282
sg312
F67.46536194220499
sg313
F65.43464695310398
sg314
F47.917483890718714
sg315
F65.34798750042134
sg316
F65.29306018072322
sg317
F6.457719579135102
sg318
F63.65522001012453
sg319
F66.27743226254756
sg320
F6.233039112999588
sg321
F55.51534202015861
sg322
F7.8258952919117215
sg323
F58.19636673444611
sg324
F20.878524860111696
sg325
F65.80102859648264
sg326
F6.623888248427702
sg327
F6.803782378878795
sg328
F27.185752958669408
sg329
F53.90594024112198
sg330
F18.398479720321433
sg331
F64.2471398056694
sg332
F61.547160271027174
sg333
F62.025134759441976
sg334
F49.747792476544355
sg335
F63.130624348530446
sg336
F45.97028329592281
sg337
F64.97938656232901
sg338
F64.09460090314249
sg339
F66.84533641332732
sg340
F51.952991623763054
sg341
F63.67080322835434
sg342
F33.91741779846617
sg343
F62.93458339189874
sg344
F66.0309355346833
sg345
F64.38204645497355
sg346
F60.04339163818119
sg347
F53.52089000999358
sg348
F66.66779886827815
sg349
F8.24826212905943
sg350
F55.248661805360754
sg351
F10.891007288283614
sg352
F13.053171789965372
sg353
F58.667421428989
sg354
F25.25257052193709
sg355
F12.987203889497597
sg356
F64.3727486538705
sg357
F65.46084800561732
sg358
F41.15168660640697
sg359
F64.1555360756727
sg360
F20.542712730500647
sg361
F54.48250142733028
sg362
F62.33418916541604
sg363
F48.42592913146726
sg364
F56.42637984795262
sg365
F65.79827009298572
sg366
F45.55374523397861
sg367
F65.13737479511373
sg368
F64.58831416443948
sg369
F62.96620741965953
sg370
F63.70284149606063
sg371
F17.246746877712685
sg372
F6.98381261710257
sg373
F58.56400665744078
sg374
F65.00161194201874
sg375
F66.0984329361867
sg376
F65.07745539972815
sg377
F8.319038451449854
sg378
F10.45110824278898
sg379
F53.6315463197334
sg380
F19.51971058588423
sg381
F64.11153010602162
sg382
F63.786414156323254
sg383
F49.692140970188376
sg384
F65.2104478242717
sg385
F56.09316748763677
sg386
F42.63311700342436
sg387
F21.163193403486808
sg388
F53.467106560047874
sg389
F66.11122117150398
sg390
F5.4817661389515555
sg391
F62.59435533483219
sg392
F48.20445897436227
sg393
F56.57665658732332
sg394
F64.94918038212093
sg395
F64.14298828827617
sg396
F65.56975944322859
sg397
F46.11411606218888
sg398
F6.702483540286335
sg399
F63.38956613259435
sg400
F66.0273783886907
sg401
F67.37122696678618
sg402
F22.69602297691017
sg403
F56.33783187829382
sg404
F65.60117976612857
sg405
F58.66028924603124
sg406
F66.15888579100452
sg407
F6.165444820889351
sg408
F6.346014708581948
sg409
F26.14824684920618
sg410
F65.57048490121284
sg411
F54.2342162585735
sg412
F7.617973345711785
sg413
F63.85928086259704
sg414
F62.26309029654688
sg415
F64.88866477267419
sg416
F49.567375740762
sg417
F56.408478857710534
sg418
F11.030115490555067
sg419
F66.4360540491289
sg420
F64.98186691683496
sg421
F27.215021906755656
sg422
F67.38295318877366
sg423
F51.300057728891076
sg424
F34.61977268280501
sg425
F63.236491554944635
sg426
F64.23757153650672
sg427
F64.59341615771557
sg428
F64.96623420296315
sg429
F19.406804182374866
sg430
F66.4070820655438
sg431
F55.421423088002335
sg432
F65.67360929710954
sg433
F65.55671632718315
sg434
F66.25136253434005
sg435
F53.865684147312955
sg436
F18.132948110873404
sg437
F66.78728359682408
sg438
F12.291311089828532
sg439
F58.23939967713302
sg440
F52.63183137219651
sg441
F13.334718206640773
sg442
F5.581771316906799
sg443
F46.77433630860628
sg444
F64.75263419562435
sg445
F65.70200721804203
sg446
F42.15428891500702
sg447
F64.38612538633168
sg448
F20.268289374569907
sg449
F64.29919744809182
sg450
F11.23367377589237
sg451
F61.96433330546049
sg452
F66.0582805009189
sg453
F48.76243928002422
sg454
F45.17632726756821
sg455
F64.72760192626032
sg456
F30.07913777447864
sg457
F64.46498894498987
sg458
F46.40729501262747
sg459
F63.56360949203697
sg460
F67.32223028807975
sg461
F18.017050154550642
sg462
F6.655384983717043
sg463
F58.969289341148645
sg464
F66.09618962436127
sg465
F65.80795800271022
sg466
F65.45352676358988
sg467
F66.81494257901409
sg468
F7.19035928667091
sg469
F55.40384487766408
sg470
F53.20406611853925
sg471
F20.320099658176336
sg472
F20.79806385039611
sg473
F64.34219075398616
sg474
F54.17400192883848
sg475
F63.92480729751943
sg476
F65.41743924797098
sg477
F56.38497495721821
sg478
F64.99027973466502
sg479
F66.43799563090306
sg480
F42.40447648319264
sg481
F64.57502043839847
sg482
F21.553226636027492
sg483
F65.26166439686847
sg484
F53.55337768220254
sg485
F7.433494939570077
sg486
F25.15341698137645
sg487
F47.80273843929012
sg488
F56.46203803436124
sg489
F12.324851935346846
sg490
F19.408584492717765
sg491
F65.02454808535313
sg492
F66.21426349481605
sg493
F6.996559964599925
sg494
F63.20840530719501
sg495
F66.46737071918086
sg496
F56.087732644932906
sg497
F67.20499607296826
sg498
F57.48208779849246
sg499
F5.784359285415049
sg500
F46.29764495480056
sg501
F31.211103807508213
sg502
F63.61355158440869
sg503
F7.0382904189717195
sg504
F63.4916304539634
sg505
F60.65617255386959
sg506
F66.04632052309665
sg507
F48.448104623508364
sg508
F63.80238819190402
sg509
F61.01308567054281
sg510
F11.302398697936257
sg511
F66.10117607968584
sg512
F43.531420300497054
sg513
F26.525551564414258
sg514
F50.775708875783835
sg515
F46.750420426641895
sg516
F63.348158321928416
sg517
F63.69025985901541
sg518
F12.54737119046529
sg519
F64.07926610055064
sg520
F64.87982874962847
sg521
F65.40100950549387
sg522
F55.18621459665117
sg523
F64.84900982696945
sg524
F54.17401131765634
sg525
F11.566590416976618
sg526
F57.90434390155481
sg527
F54.29619709662041
sg528
F13.73557767120267
sg529
F5.665679326358554
sg530
F55.86964225575766
sg531
F5.61327152874124
sg532
F67.22825127498996
sg533
F66.56809309836564
sg534
F35.33842837239324
sg535
F64.63389834176598
sg536
F19.98261539071802
sg537
F64.92388646964189
sg538
F64.98860253788871
sg539
F12.052605622775822
sg540
F61.73286904508707
sg541
F65.66078321539555
sg542
F44.873093019236016
sg543
F64.41772085858797
sg544
F31.070302905932813
sg545
F67.57991910570489
sg546
F6.053732866276282
sg547
F63.49403161235898
sg548
F66.86911406129632
sg549
F65.75689911384804
sg550
F60.47849729599769
sg551
F65.32180122556969
sg552
F58.784074255911555
sg553
F67.03242486020326
sg554
F65.52782450590492
sg555
F7.44468282023787
sg556
F46.114664983731416
sg557
F52.91795378565681
sg558
F20.940081277694
sg559
F22.119850520645606
sg560
F64.64304232575518
sg561
F53.771715332366696
sg562
F55.01728623001642
sg563
F64.26529554299498
sg564
F66.55493526747206
sg565
F21.825465214142252
sg566
F65.10835922693506
sg567
F65.58945502169914
sg568
F46.344539033694545
sg569
F7.2298832653646325
sg570
F65.68098363737174
sg571
F24.200926490593787
sg572
F47.49302963832416
sg573
F12.439049536594387
sg574
F19.122757143392455
sg575
F63.30807136058659
sg576
F65.69835408377017
sg577
F66.34201766240982
sg578
F63.01272987197335
sg579
F23.61006200997883
sg580
F57.80357267469897
sg581
F50.062794975564934
sg582
F60.532777602434635
sg583
F5.478972477721671
sg584
F55.89256414804365
sg585
F64.75144245932985
sg586
F30.50340342059367
sg587
F66.47133692462707
sg588
F63.7945506307662
sg589
F6.603634387722422
sg590
F63.533188041453016
sg591
F63.16531543266629
sg592
F48.09539645718391
sg593
F64.49680772037345
sg594
F11.706177417891393
sg595
F10.878049540101143
sg596
F65.86873783885999
sg597
F64.78233210393819
sg598
F28.364900922715332
sg599
F50.380413040370435
sg600
F6.026034371508831
sg601
F64.29697801223617
sg602
F65.29051963031661
sg603
F64.19187108033555
sg604
F64.00485746538989
sg605
F18.331809104147265
sg606
F57.60605807171942
sg607
F14.189317073849187
sg608
F5.829407600802664
sg609
F55.58776776541181
sg610
F5.526383227792882
sg611
F36.46524603235705
sg612
F65.13439558943602
sg613
F19.68433193091788
sg614
F45.847680108950556
sg615
F12.909206337991968
sg616
F52.773923813142794
sg617
F61.55662575649956
sg618
F65.34360472511361
sg619
F48.179799980654806
sg620
F12.463453317632645
sg621
F23.48643526838891
sg622
F44.644472742402506
sg623
F64.21048137084028
sg624
F63.71725511851359
sg625
F56.02669168938072
sg626
F65.69133541322327
sg627
F64.51759874874043
sg628
F5.6503242291705655
sg629
F64.97353321108064
sg630
F67.58675459100837
sg631
F65.09072722478308
sg632
F55.64997361697803
sg633
F19.18454623630587
sg634
F65.01441302043882
sg635
F53.4519414448039
sg636
F44.801292713548314
sg637
F64.45976023928311
sg638
F56.763707278307834
sg639
F65.99986363788679
sg640
F22.22922798328564
sa.