(lp0
(dp1
(I0
I77
I4
tp2
F511.73617149862685
s(I1
I38
I2
tp3
F1270.8987380882697
s(I0
I10
I4
tp4
F1045.1981217600992
s(I0
I67
I0
tp5
F50.387330936790335
s(I0
I37
I10
tp6
F731.5028292300315
s(I0
I17
I5
tp7
F1019.4214273769467
s(I1
I30
I0
tp8
F1215.8660649782282
s(I1
I47
I0
tp9
F1163.9910684288516
s(I0
I49
I2
tp10
F904.812039222513
s(I1
I33
I4
tp11
F1275.9275026395349
s(I1
I72
I6
tp12
F1322.2115592038126
s(I1
I48
I1
tp13
F1193.8645303588535
s(I1
I66
I6
tp14
F1332.2139140080255
s(I0
I51
I9
tp15
F632.4467476796963
s(I0
I56
I0
tp16
F867.9645523044795
s(I1
I4
I4
tp17
F1265.2214727888002
s(I1
I2
I0
tp18
F1185.2798133827807
s(I0
I37
I2
tp19
F561.4259819163564
s(I1
I36
I1
tp20
F1189.5948143502114
s(I1
I67
I1
tp21
F1236.4776614721827
s(I0
I29
I0
tp22
F854.7056846631663
s(I0
I86
I4
tp23
F1140.3052801962504
s(I1
I13
I2
tp24
F1250.8493577295278
s(I0
I19
I4
tp25
F980.60257019853
s(I1
I28
I3
tp26
F1281.6230131391794
s(I0
I44
I0
tp27
F1085.4642511442976
s(I0
I61
I5
tp28
F107.16516554061803
s(I0
I101
I4
tp29
F1164.4770948197574
s(I1
I6
I4
tp30
F1244.953232372423
s(I1
I45
I1
tp31
F1206.7942049659343
s(I0
I51
I1
tp32
F475.733669990697
s(I1
I60
I4
tp33
F1236.632721511107
s(I0
I76
I3
tp34
F489.94407164758405
s(I0
I9
I5
tp35
F1125.4067674091639
s(I1
I54
I0
tp36
F1195.1720968480395
s(I1
I5
I7
tp37
F1342.8562877105912
s(I0
I83
I2
tp38
F1126.412631380287
s(I1
I35
I4
tp39
F1266.9025270904554
s(I0
I53
I8
tp40
F841.5475253849166
s(I1
I40
I1
tp41
F1258.9437128078596
s(I0
I1
I0
tp42
F1078.078961226244
s(I0
I80
I0
tp43
F1005.6902152596217
s(I1
I82
I4
tp44
F1264.1956328812316
s(I1
I78
I2
tp45
F1168.6212152263274
s(I0
I39
I1
tp46
F896.0941577823262
s(I0
I8
I2
tp47
F1034.969346431223
s(I1
I58
I0
tp48
F1213.3988495904039
s(I0
I14
I2
tp49
F892.4017624422502
s(I0
I71
I2
tp50
F501.7548009650244
s(I0
I40
I5
tp51
F974.3355916806825
s(I0
I93
I2
tp52
F1095.7447020319144
s(I0
I63
I4
tp53
F82.73449036456697
s(I1
I75
I0
tp54
F1203.8008992082773
s(I0
I36
I5
tp55
F649.7760735227425
s(I1
I35
I2
tp56
F1221.2112691492148
s(I0
I53
I0
tp57
F672.4020424310032
s(I0
I78
I4
tp58
F457.5932391219251
s(I1
I37
I2
tp59
F1281.5709833189806
s(I1
I76
I0
tp60
F1226.9048867967138
s(I0
I68
I0
tp61
F223.0146460154517
s(I1
I14
I3
tp62
F1264.15407154351
s(I1
I29
I0
tp63
F1192.4273253692375
s(I0
I60
I2
tp64
F393.3650652261464
s(I0
I33
I5
tp65
F921.4574689437258
s(I0
I105
I4
tp66
F1196.5840929623066
s(I0
I50
I2
tp67
F456.6711344584802
s(I0
I75
I2
tp68
F409.5531410064011
s(I1
I32
I4
tp69
F1315.2068408323842
s(I1
I6
I6
tp70
F1283.0367138097351
s(I1
I46
I0
tp71
F1155.091028330451
s(I0
I57
I0
tp72
F859.7918749076157
s(I1
I4
I0
tp73
F1191.1608118925942
s(I0
I72
I0
tp74
F529.0718803737539
s(I1
I74
I4
tp75
F1290.7473665417178
s(I1
I1
I0
tp76
F1166.8564972559916
s(I0
I95
I1
tp77
F1089.792462583096
s(I0
I38
I2
tp78
F828.1381977344208
s(I0
I60
I10
tp79
F223.81337659298376
s(I0
I13
I3
tp80
F1036.816592739655
s(I0
I30
I0
tp81
F854.0600519077063
s(I0
I70
I1
tp82
F477.50571022702695
s(I0
I87
I4
tp83
F1126.8953092829586
s(I0
I45
I0
tp84
F797.3582449076644
s(I0
I102
I4
tp85
F1151.758436164062
s(I0
I35
I4
tp86
F850.6935320701966
s(I1
I44
I3
tp87
F1235.2785931401365
s(I1
I70
I5
tp88
F1347.7034363712844
s(I0
I77
I5
tp89
F531.795524704228
s(I1
I14
I4
tp90
F1283.002327209306
s(I0
I67
I1
tp91
F71.80595510905343
s(I0
I84
I2
tp92
F1179.543565542808
s(I0
I37
I11
tp93
F752.762435144241
s(I0
I17
I6
tp94
F1038.9506214807327
s(I0
I42
I2
tp95
F1121.0875240650998
s(I0
I49
I3
tp96
F922.3807551642337
s(I0
I2
I0
tp97
F1009.3934427145273
s(I1
I13
I5
tp98
F1314.0463749490918
s(I1
I72
I7
tp99
F1344.4084362547778
s(I0
I81
I0
tp100
F1022.8776353605517
s(I0
I96
I0
tp101
F1080.1756107048072
s(I1
I57
I0
tp102
F1196.0375524183885
s(I1
I2
I1
tp103
F1206.9442494013163
s(I0
I37
I3
tp104
F582.6855878305657
s(I0
I54
I0
tp105
F856.6568247439177
s(I0
I12
I4
tp106
F1066.2032655215394
s(I0
I29
I1
tp107
F880.9769718356872
s(I0
I69
I0
tp108
F321.37299559507306
s(I0
I19
I5
tp109
F999.0487470033563
s(I1
I28
I0
tp110
F1223.2057299124556
s(I0
I61
I6
tp111
F87.8831236292011
s(I0
I101
I5
tp112
F1187.2474384849659
s(I1
I45
I0
tp113
F1185.7774603741557
s(I0
I51
I6
tp114
F573.6793435463215
s(I0
I76
I2
tp115
F470.3797889121091
s(I1
I39
I4
tp116
F1221.5817076927349
s(I0
I9
I6
tp117
F1148.0636266646657
s(I1
I54
I1
tp118
F1216.551436023041
s(I1
I5
I6
tp119
F1321.3958799199215
s(I0
I36
I12
tp120
F517.7102408902936
s(I0
I58
I0
tp121
F873.130967507736
s(I0
I1
I1
tp122
F1056.379062599065
s(I0
I73
I0
tp123
F522.9036218412066
s(I1
I78
I0
tp124
F1141.775859771955
s(I1
I0
I0
tp125
F1147.1649600234161
s(I1
I82
I5
tp126
F1283.5600937356526
s(I0
I8
I1
tp127
F1021.2992244602952
s(I1
I58
I1
tp128
F1231.2384344464774
s(I0
I31
I0
tp129
F922.2061790315261
s(I0
I40
I4
tp130
F955.6608570938831
s(I0
I93
I3
tp131
F1116.7531097007113
s(I0
I46
I0
tp132
F871.0661699589834
s(I0
I63
I5
tp133
F101.11993266780408
s(I0
I103
I4
tp134
F1131.499176272207
s(I0
I36
I4
tp135
F668.6426210416637
s(I1
I35
I1
tp136
F1198.3656401785945
s(I0
I53
I1
tp137
F693.5452278002424
s(I1
I76
I1
tp138
F1248.1117218772702
s(I1
I52
I0
tp139
F1161.7418051880504
s(I1
I45
I4
tp140
F1269.8444387412706
s(I0
I60
I1
tp141
F414.5590263052917
s(I1
I59
I6
tp142
F1346.9902118520345
s(I0
I13
I4
tp143
F1058.8612201553865
s(I0
I33
I6
tp144
F939.4376889774202
s(I0
I3
I0
tp145
F988.0766436982053
s(I0
I82
I0
tp146
F1046.3915023643754
s(I0
I97
I0
tp147
F1102.0759109568219
s(I1
I56
I0
tp148
F1196.6332372168697
s(I1
I8
I0
tp149
F1170.433961780993
s(I0
I37
I12
tp150
F774.0220410584503
s(I0
I55
I0
tp151
F864.8073234233473
s(I0
I64
I4
tp152
F91.16297956399593
s(I0
I60
I9
tp153
F245.0073376721291
s(I1
I66
I0
tp154
F1214.1632428212972
s(I0
I70
I0
tp155
F461.59276645660947
s(I0
I87
I5
tp156
F1148.5759311297008
s(I1
I19
I0
tp157
F1207.5649618069617
s(I0
I45
I1
tp158
F822.7710466918829
s(I0
I102
I7
tp159
F1211.5903613892235
s(I1
I44
I0
tp160
F1183.8418745156764
s(I0
I77
I6
tp161
F551.8548779098292
s(I1
I77
I2
tp162
F1256.5130265817813
s(I0
I67
I6
tp163
F178.89907597036884
s(I0
I84
I1
tp164
F1163.3281628877319
s(I0
I37
I4
tp165
F603.9451937447751
s(I0
I17
I7
tp166
F1058.4798155845187
s(I0
I59
I0
tp167
F871.6269586219315
s(I0
I12
I3
tp168
F1042.527072468885
s(I0
I49
I4
tp169
F939.9494711059547
s(I0
I74
I0
tp170
F330.5861656725574
s(I0
I19
I2
tp171
F943.7102165888774
s(I1
I72
I4
tp172
F1277.817805101882
s(I1
I7
I0
tp173
F1148.633475152924
s(I1
I39
I3
tp174
F1202.3556661850964
s(I0
I36
I11
tp175
F536.5767884092148
s(I0
I16
I0
tp176
F904.8028171914677
s(I1
I2
I2
tp177
F1228.608685419852
s(I0
I47
I0
tp178
F884.3421339573897
s(I1
I11
I0
tp179
F1166.2421751788775
s(I0
I29
I2
tp180
F907.2482590082083
s(I0
I69
I1
tp181
F341.72119543758504
s(I1
I78
I1
tp182
F1155.1985374991414
s(I1
I28
I1
tp183
F1242.6781576546969
s(I0
I61
I7
tp184
F68.60108171778415
s(I0
I101
I6
tp185
F1210.0177821501743
s(I1
I45
I3
tp186
F1248.827694149492
s(I0
I51
I7
tp187
F593.2684782574464
s(I1
I60
I2
tp188
F1204.1141232589064
s(I0
I4
I0
tp189
F949.9535542437252
s(I0
I76
I1
tp190
F450.81550617663424
s(I0
I93
I4
tp191
F1137.7615173695085
s(I1
I54
I2
tp192
F1237.9307751980425
s(I1
I5
I1
tp193
F1214.0938409665732
s(I0
I83
I0
tp194
F1076.0429212809636
s(I0
I36
I3
tp195
F687.5091685605851
s(I0
I98
I0
tp196
F1099.7121852300643
s(I1
I63
I0
tp197
F1145.477754286156
s(I0
I1
I2
tp198
F1034.6791639718858
s(I0
I73
I1
tp199
F545.9538610361215
s(I0
I18
I1
tp200
F944.9860454229464
s(I1
I82
I6
tp201
F1302.9245545900735
s(I1
I32
I2
tp202
F1276.420386852526
s(I0
I8
I0
tp203
F1007.6291024893676
s(I1
I58
I2
tp204
F1249.078019302551
s(I1
I65
I0
tp205
F1191.4905853958558
s(I0
I71
I0
tp206
F463.25999585012545
s(I0
I40
I3
tp207
F936.986122507084
s(I1
I18
I0
tp208
F1172.9645788810903
s(I0
I63
I2
tp209
F45.96360575809276
s(I1
I4
I3
tp210
F1246.7063075647486
s(I0
I17
I8
tp211
F1078.0090096883048
s(I1
I35
I0
tp212
F1175.520011207974
s(I0
I53
I2
tp213
F714.6884131694816
s(I1
I27
I2
tp214
F1270.6462843134007
s(I0
I38
I4
tp215
F862.9272807095135
s(I0
I60
I0
tp216
F435.752987384437
s(I1
I59
I5
tp217
F1325.0654188228548
s(I0
I13
I5
tp218
F1080.9058475711179
s(I1
I61
I1
tp219
F1271.3943109520455
s(I0
I3
I1
tp220
F974.3145895530996
s(I0
I75
I0
tp221
F361.8893767383184
s(I0
I20
I2
tp222
F843.3410152967365
s(I1
I6
I0
tp223
F1168.7862694977985
s(I0
I35
I2
tp224
F807.5151110953578
s(I1
I70
I4
tp225
F1327.8499520615633
s(I0
I10
I1
tp226
F995.9116718910086
s(I1
I56
I1
tp227
F1214.7076163017887
s(I1
I15
I2
tp228
F1207.2421019071728
s(I0
I17
I0
tp229
F921.7754568580168
s(I1
I77
I0
tp230
F1224.3437807215048
s(I0
I32
I0
tp231
F920.0226699495462
s(I1
I33
I1
tp232
F1227.8390412656806
s(I0
I64
I3
tp233
F70.90453966088572
s(I0
I60
I8
tp234
F266.2012987512744
s(I1
I66
I1
tp235
F1233.838354685752
s(I1
I10
I0
tp236
F1190.390832245855
s(I0
I30
I2
tp237
F904.0200952309089
s(I0
I87
I2
tp238
F1083.5340655894738
s(I0
I45
I2
tp239
F848.1838484761015
s(I0
I102
I6
tp240
F1191.6463863141696
s(I1
I44
I1
tp241
F1200.9874473904963
s(I1
I51
I2
tp242
F1217.6761671946906
s(I0
I5
I0
tp243
F951.1744078519508
s(I0
I67
I7
tp244
F200.31770014263194
s(I0
I84
I0
tp245
F1147.112760232656
s(I0
I37
I5
tp246
F625.2047996589845
s(I1
I59
I4
tp247
F1303.140625793675
s(I0
I99
I0
tp248
F1040.1286516223086
s(I0
I12
I2
tp249
F1018.8508794162308
s(I0
I49
I5
tp250
F957.5181870476754
s(I1
I62
I0
tp251
F1255.0219377345272
s(I0
I19
I3
tp252
F962.1563933937036
s(I1
I28
I6
tp253
F1340.0402963659033
s(I1
I72
I5
tp254
F1300.0146821528472
s(I0
I34
I1
tp255
F787.0062586324573
s(I1
I39
I2
tp256
F1183.1296246774582
s(I0
I9
I0
tp257
F1012.1224711316547
s(I1
I5
I8
tp258
F1364.3166955012607
s(I1
I64
I0
tp259
F1167.273235783296
s(I0
I36
I10
tp260
F555.4433359281361
s(I0
I88
I0
tp261
F1019.4580526814802
s(I1
I2
I3
tp262
F1250.2731214383875
s(I1
I17
I0
tp263
F1149.4598690823973
s(I1
I34
I0
tp264
F1155.0039376400018
s(I0
I79
I2
tp265
F1018.5684905878009
s(I0
I69
I2
tp266
F362.06939528009696
s(I0
I86
I1
tp267
F1089.0687559028388
s(I0
I61
I0
tp268
F203.57537509770265
s(I1
I45
I2
tp269
F1227.8109495577132
s(I0
I51
I4
tp270
F534.5010741240717
s(I0
I40
I10
tp271
F1067.7092646146784
s(I0
I76
I0
tp272
F431.25122344115925
s(I1
I54
I3
tp273
F1259.310114373044
s(I1
I5
I0
tp274
F1192.6334331759033
s(I0
I83
I1
tp275
F1101.2277763306254
s(I0
I36
I2
tp276
F706.3757160795063
s(I1
I31
I4
tp277
F1311.9705640481338
s(I1
I40
I4
tp278
F1314.4416815304703
s(I1
I70
I7
tp279
F1387.4104049907264
s(I0
I73
I2
tp280
F569.0041002310365
s(I0
I18
I0
tp281
F923.0025883450646
s(I0
I33
I0
tp282
F831.5563687752535
s(I1
I32
I3
tp283
F1295.813613842455
s(I0
I61
I8
tp284
F49.31903980636725
s(I1
I58
I3
tp285
F1266.9176041586245
s(I1
I9
I0
tp286
F1186.6390829230334
s(I1
I80
I2
tp287
F1206.3387488374904
s(I0
I71
I1
tp288
F482.5073984075749
s(I0
I40
I2
tp289
F918.3113879202847
s(I0
I63
I3
tp290
F64.34904806132987
s(I0
I103
I2
tp291
F1098.1342484118134
s(I0
I53
I3
tp292
F735.8315985387208
s(I0
I6
I0
tp293
F963.6908312541777
s(I0
I78
I1
tp294
F385.8467034881735
s(I1
I69
I2
tp295
F1290.1453916552637
s(I1
I27
I1
tp296
F1247.7755770045742
s(I0
I85
I0
tp297
F1147.1204541576283
s(I0
I60
I7
tp298
F287.3952598304197
s(I0
I100
I0
tp299
F1059.2193184563205
s(I0
I13
I6
tp300
F1102.9504749868495
s(I1
I61
I0
tp301
F1253.6396843667867
s(I1
I68
I2
tp302
F1228.533641206956
s(I0
I75
I1
tp303
F385.7212588723597
s(I0
I20
I1
tp304
F858.6586071381612
s(I1
I6
I1
tp305
F1187.8280102164545
s(I0
I35
I3
tp306
F829.1043215827773
s(I0
I10
I0
tp307
F979.4828552679784
s(I1
I71
I0
tp308
F1166.911423018244
s(I1
I15
I1
tp309
F1192.458029528411
s(I0
I17
I1
tp310
F941.3046509618027
s(I0
I89
I0
tp311
F1030.765185791144
s(I1
I16
I0
tp312
F1140.487599732851
s(I0
I104
I0
tp313
F1100.6010459546003
s(I0
I19
I8
tp314
F1054.3872774178353
s(I1
I33
I0
tp315
F1211.8095541410626
s(I1
I72
I2
tp316
F1233.424050999951
s(I0
I64
I2
tp317
F50.64609975777552
s(I1
I66
I2
tp318
F1253.5134665502067
s(I1
I10
I1
tp319
F1213.8415084085648
s(I0
I70
I2
tp320
F493.4186539974445
s(I0
I87
I3
tp321
F1105.2146874362163
s(I0
I62
I0
tp322
F19.839009425329397
s(I0
I102
I1
tp323
F1091.9265109389007
s(I0
I52
I4
tp324
F764.3550405988082
s(I1
I51
I1
tp325
F1197.7914610869177
s(I0
I77
I0
tp326
F431.4987586762224
s(I0
I67
I4
tp327
F136.06182762584268
s(I0
I37
I6
tp328
F646.464405573194
s(I0
I12
I1
tp329
F995.1746863635764
s(I0
I49
I6
tp330
F975.0869029893961
s(I1
I62
I1
tp331
F1275.5410710552674
s(I1
I69
I1
tp332
F1269.4909440602858
s(I1
I13
I6
tp333
F1335.112047355613
s(I0
I19
I0
tp334
F906.8178629792247
s(I1
I28
I7
tp335
F1359.5127241081445
s(I0
I34
I0
tp336
F809.3157078028892
s(I1
I45
I5
tp337
F1290.8611833330492
s(I1
I5
I4
tp338
F1278.4750643385821
s(I1
I39
I1
tp339
F1163.9035831698197
s(I0
I9
I1
tp340
F1034.7793303871565
s(I1
I54
I4
tp341
F1280.6894535480453
s(I0
I36
I9
tp342
F574.3098834470574
s(I1
I31
I3
tp343
F1293.2965096769271
s(I1
I53
I0
tp344
F1173.974151352097
s(I1
I2
I4
tp345
F1271.937557456923
s(I1
I70
I8
tp346
F1407.2638893004473
s(I0
I7
I0
tp347
F986.0312442301836
s(I1
I82
I0
tp348
F1186.7377894635476
s(I0
I69
I3
tp349
F382.4175951226089
s(I0
I86
I0
tp350
F1071.9899144717015
s(I0
I44
I4
tp351
F1152.805205034054
s(I0
I61
I1
tp352
F184.2933331862857
s(I0
I101
I0
tp353
F1073.395720158924
s(I0
I51
I5
tp354
F554.0902088351967
s(I0
I40
I9
tp355
F1049.0345300278793
s(I1
I5
I3
tp356
F1257.0146565479126
s(I1
I4
I2
tp357
F1228.1911423406973
s(I0
I36
I1
tp358
F725.2422635984276
s(I1
I35
I6
tp359
F1312.593785031696
s(I0
I53
I4
tp360
F756.9747839079599
s(I0
I11
I0
tp361
F957.8868061682435
s(I1
I70
I0
tp362
F1248.4360148226792
s(I0
I18
I3
tp363
F988.9529595787099
s(I0
I90
I0
tp364
F1075.862519878854
s(I1
I23
I0
tp365
F1242.0854672010655
s(I0
I33
I1
tp366
F849.536588808948
s(I0
I105
I0
tp367
F1121.6410604352493
s(I1
I32
I0
tp368
F1237.6339328726676
s(I1
I28
I8
tp369
F1378.9851518503858
s(I1
I58
I4
tp370
F1284.7571890146983
s(I0
I40
I1
tp371
F899.6366533334856
s(I0
I63
I0
tp372
F9.192721151618551
s(I0
I103
I3
tp373
F1114.81671234201
s(I1
I60
I3
tp374
F1220.3734223850067
s(I1
I74
I0
tp375
F1202.349999980297
s(I1
I27
I0
tp376
F1224.904869695748
s(I0
I78
I0
tp377
F361.9311916102563
s(I0
I68
I4
tp378
F301.40064571177646
s(I0
I85
I1
tp379
F1163.3512446626492
s(I0
I60
I6
tp380
F308.58922090956503
s(I1
I59
I3
tp381
F1281.2158327644956
s(I1
I61
I3
tp382
F1306.9035641225632
s(I0
I20
I0
tp383
F873.9761989795859
s(I1
I6
I2
tp384
F1206.8697509351107
s(I0
I102
I8
tp385
F1231.5343364642772
s(I0
I35
I0
tp386
F764.3366901205192
s(I0
I52
I3
tp387
F741.5717981871582
s(I0
I10
I3
tp388
F1028.7693051370688
s(I1
I60
I0
tp389
F1171.5955250067057
s(I0
I63
I8
tp390
F156.2762595775154
s(I1
I13
I4
tp391
F1292.9807025425705
s(I0
I17
I2
tp392
F960.8338450655888
s(I0
I89
I1
tp393
F1047.3088661444822
s(I1
I33
I3
tp394
F1259.898015514917
s(I1
I72
I3
tp395
F1255.6209280509165
s(I1
I48
I2
tp396
F1211.131282647917
s(I0
I24
I0
tp397
F908.2474196070265
s(I0
I64
I1
tp398
F30.38765985466531
s(I1
I66
I3
tp399
F1273.1885784146614
s(I1
I10
I2
tp400
F1237.2921845712747
s(I1
I81
I0
tp401
F1163.947652474328
s(I0
I51
I10
tp402
F652.0358823908211
s(I0
I87
I0
tp403
F1040.172821895989
s(I1
I44
I4
tp404
F1252.4241660149564
s(I0
I102
I0
tp405
F1071.9825358638466
s(I1
I51
I0
tp406
F1177.9067549791446
s(I0
I77
I1
tp407
F451.5581118818235
s(I0
I67
I5
tp408
F157.48045179810578
s(I0
I37
I7
tp409
F667.7240114874033
s(I1
I36
I2
tp410
F1206.5932261019097
s(I0
I12
I0
tp411
F971.4984933109221
s(I0
I69
I4
tp412
F402.76579496512085
s(I1
I62
I2
tp413
F1296.0602043760075
s(I1
I69
I0
tp414
F1248.8364964653078
s(I1
I13
I1
tp415
F1229.7836853230065
s(I0
I19
I1
tp416
F925.2640397840511
s(I0
I91
I0
tp417
F1077.653595623093
s(I0
I44
I3
tp418
F1135.969966561615
s(I1
I22
I0
tp419
F1202.1664212991236
s(I0
I106
I0
tp420
F1123.3157641324706
s(I0
I51
I2
tp421
F495.32280470182195
s(I1
I39
I0
tp422
F1144.6775416621813
s(I0
I9
I2
tp423
F1057.4361896426583
s(I0
I36
I8
tp424
F593.1764309659786
s(I1
I31
I2
tp425
F1274.6224553057202
s(I1
I2
I5
tp426
F1293.6019934754586
s(I1
I14
I6
tp427
F1320.6988385408977
s(I1
I40
I2
tp428
F1277.4430357153965
s(I0
I48
I0
tp429
F887.0568269523967
s(I1
I73
I0
tp430
F1184.6160937663287
s(I0
I79
I0
tp431
F966.650904785913
s(I1
I82
I1
tp432
F1206.1022503179686
s(I1
I26
I0
tp433
F1197.2646781005283
s(I1
I3
I0
tp434
F1178.1754123270407
s(I0
I86
I3
tp435
F1123.226438765113
s(I0
I39
I2
tp436
F912.4072286683524
s(I1
I43
I0
tp437
F1162.7167049033617
s(I0
I61
I2
tp438
F165.0112912748688
s(I0
I101
I1
tp439
F1096.1660638241324
s(I0
I14
I1
tp440
F913.9352975261539
s(I0
I40
I8
tp441
F1030.35979544108
s(I0
I76
I6
tp442
F548.6369198540089
s(I0
I21
I0
tp443
F848.9527357837244
s(I1
I5
I2
tp444
F1235.554248757243
s(I1
I60
I1
tp445
F1187.854824132806
s(I0
I36
I0
tp446
F744.1088111173489
s(I1
I35
I5
tp447
F1289.7481560610756
s(I0
I53
I5
tp448
F778.1179692771991
s(I1
I37
I1
tp449
F1254.979562782492
s(I0
I68
I3
tp450
F281.8041457876953
s(I1
I70
I1
tp451
F1268.2894991324004
s(I1
I14
I0
tp452
F1207.6093045461225
s(I0
I18
I2
tp453
F966.9695025008281
s(I0
I33
I2
tp454
F867.5168088426424
s(I0
I105
I1
tp455
F1140.3768185670135
s(I0
I50
I1
tp456
F477.31346752742127
s(I1
I32
I1
tp457
F1257.0271598625968
s(I0
I25
I0
tp458
F881.052169613286
s(I1
I58
I5
tp459
F1302.5967738707718
s(I1
I80
I0
tp460
F1161.939546497353
s(I0
I40
I0
tp461
F880.9619187466863
s(I0
I63
I1
tp462
F27.578163454855655
s(I0
I103
I0
tp463
F1064.7693205514195
s(I0
I0
I2
tp464
F1096.6181789345883
s(I1
I74
I1
tp465
F1224.4493416206524
s(I1
I50
I0
tp466
F1223.9576349282827
s(I1
I15
I0
tp467
F1177.6739571496496
s(I0
I78
I3
tp468
F433.6777272440079
s(I0
I95
I2
tp469
F1107.288749394746
s(I0
I85
I2
tp470
F1179.58203516767
s(I0
I38
I1
tp471
F810.7436562468745
s(I0
I60
I5
tp472
F329.7831819887104
s(I1
I59
I2
tp473
F1259.291039735316
s(I0
I13
I0
tp474
F970.6827104924606
s(I1
I61
I2
tp475
F1289.1489375373044
s(I1
I68
I0
tp476
F1188.6311153635047
s(I0
I92
I0
tp477
F1032.8585142371985
s(I1
I6
I3
tp478
F1225.9114916537667
s(I1
I21
I0
tp479
F1206.7973576252969
s(I0
I35
I1
tp480
F785.9259006079385
s(I0
I107
I0
tp481
F1152.4072597061638
s(I0
I52
I2
tp482
F718.7885557755084
s(I1
I38
I0
tp483
F1226.2536931998611
s(I0
I10
I2
tp484
F1012.3404885140387
s(I0
I67
I2
tp485
F93.22457928131651
s(I0
I37
I8
tp486
F688.9836174016127
s(I0
I17
I3
tp487
F980.3630391693747
s(I0
I89
I2
tp488
F1063.8525464978202
s(I0
I42
I1
tp489
F1106.1643758539865
s(I0
I49
I0
tp490
F869.6746073390714
s(I1
I33
I2
tp491
F1243.8685283902987
s(I1
I72
I0
tp492
F1189.0302968980204
s(I0
I64
I0
tp493
F10.129219951555104
s(I1
I66
I4
tp494
F1292.863690279116
s(I1
I25
I0
tp495
F1167.034449883588
s(I0
I87
I1
tp496
F1061.8534437427315
s(I1
I42
I0
tp497
F1142.6144213184095
s(I0
I102
I3
tp498
F1131.8144610890083
s(I0
I77
I2
tp499
F471.61746508742465
s(I0
I22
I0
tp500
F878.9751428349449
s(I0
I37
I0
tp501
F518.9067700879376
s(I1
I67
I3
tp502
F1279.3469609163333
s(I0
I69
I5
tp503
F423.1139948076328
s(I1
I62
I3
tp504
F1316.5793376967474
s(I1
I69
I3
tp505
F1310.7998392502418
s(I1
I13
I0
tp506
F1208.7180129164853
s(I0
I19
I6
tp507
F1017.4949238081826
s(I1
I28
I5
tp508
F1320.567868623662
s(I1
I72
I8
tp509
F1366.6053133057433
s(I0
I44
I2
tp510
F1119.1347280891757
s(I1
I22
I1
tp511
F1217.1677669961912
s(I0
I34
I2
tp512
F764.6968094620254
s(I0
I51
I3
tp513
F514.9119394129468
s(I0
I9
I3
tp514
F1080.09304889816
s(I0
I26
I0
tp515
F828.0763258820646
s(I1
I5
I5
tp516
F1299.9354721292518
s(I1
I31
I1
tp517
F1255.9484009345135
s(I0
I41
I0
tp518
F1080.413142722697
s(I1
I2
I6
tp519
F1315.266429493994
s(I1
I40
I3
tp520
F1295.9423586229334
s(I1
I49
I0
tp521
F1228.4765979889671
s(I0
I79
I1
tp522
F992.6096976868569
s(I1
I82
I2
tp523
F1225.4667111723898
s(I0
I86
I2
tp524
F1106.147597333976
s(I0
I61
I3
tp525
F145.72924936345188
s(I0
I101
I2
tp526
F1118.9364074893408
s(I0
I14
I0
tp527
F935.4688326100577
s(I0
I40
I7
tp528
F1011.6850608542809
s(I0
I76
I5
tp529
F529.072637118534
s(I0
I93
I0
tp530
F1053.7278866943202
s(I0
I63
I6
tp531
F119.50537497104118
s(I1
I83
I0
tp532
F1185.6846804871568
s(I1
I20
I0
tp533
F1193.7929233026582
s(I0
I36
I7
tp534
F612.0429784849
s(I0
I108
I0
tp535
F1149.395693468438
s(I0
I53
I6
tp536
F799.2611546464383
s(I1
I37
I0
tp537
F1228.3881422460033
s(I1
I76
I2
tp538
F1269.3185569578268
s(I0
I68
I2
tp539
F262.20764586361406
s(I1
I70
I2
tp540
F1288.1429834421212
s(I1
I14
I1
tp541
F1226.4575602119185
s(I0
I33
I3
tp542
F885.4970288763368
s(I0
I105
I2
tp543
F1159.112576698778
s(I0
I50
I0
tp544
F497.9558005963624
s(I1
I79
I0
tp545
F1142.9521334103404
s(I0
I65
I0
tp546
F109.4779384182959
s(I1
I58
I6
tp547
F1320.4363587268454
s(I1
I80
I1
tp548
F1184.1391476674216
s(I1
I24
I0
tp549
F1246.8474694374702
s(I1
I69
I4
tp550
F1331.4542868452197
s(I1
I41
I0
tp551
F1250.1737271831466
s(I0
I103
I1
tp552
F1081.4517844816164
s(I0
I0
I1
tp553
F1111.9967157240978
s(I1
I74
I2
tp554
F1246.5486832610075
s(I0
I78
I2
tp555
F409.7622153660907
s(I0
I23
I0
tp556
F908.1790770312099
s(I0
I85
I3
tp557
F1195.812825672691
s(I0
I38
I0
tp558
F793.3491147593281
s(I0
I60
I4
tp559
F350.97714306785565
s(I1
I59
I1
tp560
F1237.3662467061365
s(I0
I13
I1
tp561
F992.7273379081921
s(I0
I87
I6
tp562
F1170.2565529764433
s(I1
I68
I1
tp563
F1208.5823782852303
s(I1
I12
I0
tp564
F1184.2335488367466
s(I0
I52
I1
tp565
F696.0053133638585
s(I1
I38
I1
tp566
F1248.5762156440655
s(I1
I77
I1
tp567
F1240.428403651643
s(I0
I27
I0
tp568
F821.5183455732557
s(I0
I67
I3
tp569
F114.64320345357959
s(I1
I4
I1
tp570
F1209.6759771166458
s(I0
I37
I9
tp571
F710.2432233158221
s(I0
I17
I4
tp572
F999.8922332731607
s(I0
I42
I0
tp573
F1091.241227642873
s(I0
I49
I1
tp574
F887.2433232807921
s(I1
I62
I4
tp575
F1337.0984710174873
s(I1
I72
I1
tp576
F1211.2271739489859
s(I1
I48
I0
tp577
F1176.5977780697897
s(I1
I66
I5
tp578
F1312.5388021435708
s(I0
I51
I8
tp579
F612.8576129685713
s(I0
I102
I2
tp580
F1111.8704860139544
s(I0
I15
I0
tp581
F889.6148847385549
s(I1
I70
I6
tp582
F1367.5569206810053
s(I0
I77
I3
tp583
F491.67681829302575
s(I0
I94
I0
tp584
F1053.3858576127711
s(I1
I14
I5
tp585
F1301.8505828751017
s(I0
I37
I1
tp586
F540.166376002147
s(I1
I36
I0
tp587
F1172.5964025985131
s(I1
I67
I2
tp588
F1257.912311194258
s(I0
I69
I6
tp589
F443.46219465014474
s(I1
I67
I4
tp590
F1300.7816106384084
s(I1
I13
I3
tp591
F1271.9150301360492
s(I0
I19
I7
tp592
F1035.941100613009
s(I1
I28
I2
tp593
F1262.1505853969381
s(I0
I44
I1
tp594
F1102.2994896167368
s(I0
I61
I4
tp595
F126.44720745203495
s(I1
I22
I2
tp596
F1232.1691126932587
s(I1
I45
I6
tp597
F1311.8779279248279
s(I0
I51
I0
tp598
F456.1445352795721
s(I0
I9
I4
tp599
F1102.749908153662
s(I0
I66
I0
tp600
F114.34162908883722
s(I1
I31
I0
tp601
F1237.2743465633066
s(I1
I40
I0
tp602
F1240.4443899003227
s(I1
I82
I3
tp603
F1244.8311720268107
s(I1
I28
I4
tp604
F1301.0954408814207
s(I0
I39
I0
tp605
F879.7810868962999
s(I0
I101
I3
tp606
F1141.7067511545492
s(I0
I40
I6
tp607
F993.0103262674816
s(I0
I76
I4
tp608
F509.508354383059
s(I0
I93
I1
tp609
F1074.7362943631172
s(I0
I63
I7
tp610
F137.89081727427828
s(I0
I36
I6
tp611
F630.9095260038212
s(I1
I35
I3
tp612
F1244.056898119835
s(I0
I53
I7
tp613
F820.4043400156775
s(I0
I28
I0
tp614
F832.068149917656
s(I0
I68
I1
tp615
F242.6111459395329
s(I0
I85
I4
tp616
F1212.043616177712
s(I1
I70
I3
tp617
F1307.9964677518424
s(I1
I14
I2
tp618
F1245.3058158777142
s(I0
I18
I4
tp619
F1010.9364166565915
s(I0
I43
I0
tp620
F1095.9989986331323
s(I0
I60
I3
tp621
F372.1711041470011
s(I0
I33
I4
tp622
F903.4772489100312
s(I0
I105
I3
tp623
F1177.8483348305424
s(I1
I61
I4
tp624
F1324.658190707822
s(I0
I3
I2
tp625
F960.5525354079939
s(I1
I55
I0
tp626
F1186.0392374674743
s(I1
I6
I5
tp627
F1263.994973091079
s(I0
I67
I8
tp628
F221.736324314895
s(I1
I56
I2
tp629
F1232.7819953867079
s(I0
I0
I0
tp630
F1127.3752525136074
s(I1
I74
I3
tp631
F1268.6480249013628
s(I0
I95
I0
tp632
F1072.2961757714459
s(I0
I38
I3
tp633
F845.5327392219672
s(I1
I59
I0
tp634
F1215.4414536769568
s(I0
I13
I2
tp635
F1014.7719653239235
s(I0
I30
I1
tp636
F879.0400735693075
s(I1
I67
I0
tp637
F1215.0430117501073
s(I0
I102
I5
tp638
F1171.702411239116
s(I1
I44
I2
tp639
F1218.1330202653164
s(I0
I52
I0
tp640
F673.2220709522086
sa(dp641
g2
F25.150783667862083
sg3
F5.669812655811299
sg4
F6.547472019340554
sg5
F195.91802458626273
sg6
F9.655258949683605
sg7
F7.046643932378046
sg8
F5.678220347621397
sg9
F5.803134627646069
sg10
F7.830213405348175
sg11
F5.662697855022281
sg12
F5.3820837740944905
sg13
F5.75497644079074
sg14
F5.490125880094879
sg15
F13.273854569584163
sg16
F11.012013231961006
sg17
F5.697960734140227
sg18
F5.763719445785023
sg19
F12.364566938531372
sg20
F5.762218399208939
sg21
F5.595292315477887
sg22
F8.003389851222327
sg23
F5.943200366494975
sg24
F5.58244160009677
sg25
F7.301395725406708
sg26
F5.614015898634988
sg27
F5.074705011252753
sg28
F144.74174550355028
sg29
F5.960501386782855
sg30
F5.661800961395744
sg31
F5.780884324160993
sg32
F15.966048889590775
sg33
F5.6506142649784525
sg34
F29.096673895822544
sg35
F6.145054543083159
sg36
F5.666897327954764
sg37
F5.445342786333558
sg38
F6.047232498087669
sg39
F5.662675402029109
sg40
F11.16456142690903
sg41
F5.684939301969833
sg42
F6.037778434061908
sg43
F6.368028433849253
sg44
F5.562461352344964
sg45
F5.899182384922176
sg46
F7.54502356859409
sg47
F6.498545229206819
sg48
F5.6724885236542235
sg49
F7.365592999601269
sg50
F29.26296787136488
sg51
F6.0922021783604565
sg52
F6.128227216612844
sg53
F562.5635546321411
sg54
F5.768688678856441
sg55
F10.836354276994523
sg56
F5.714626914638768
sg57
F12.747151054461034
sg58
F33.83015508871282
sg59
F5.5875328775776945
sg60
F5.727722959918954
sg61
F66.15352842166097
sg62
F5.685224086696783
sg63
F5.739780497118515
sg64
F27.428425623665113
sg65
F7.8727154685811
sg66
F5.862988439969598
sg67
F15.868996448590428
sg68
F34.17540761460882
sg69
F5.585340866261147
sg70
F5.619780091087173
sg71
F5.827478264111352
sg72
F11.037985787932177
sg73
F5.761394383151693
sg74
F28.02616072809308
sg75
F5.664807169101349
sg76
F5.817748616507127
sg77
F6.139676898494419
sg78
F8.18126786738701
sg79
F65.72015430061336
sg80
F6.520376941327848
sg81
F7.998013792581824
sg82
F30.16154661086546
sg83
F6.124983565333889
sg84
F8.710736778291919
sg85
F5.959577922989872
sg86
F8.908127261534666
sg87
F5.740029860380669
sg88
F5.328699715978513
sg89
F24.404611553187717
sg90
F5.671461504839726
sg91
F188.0688502026679
sg92
F5.965502824017802
sg93
F9.295160416507482
sg94
F6.971745056816183
sg95
F5.085172437376513
sg96
F7.754578713838981
sg97
F6.363859173929993
sg98
F5.432716925858662
sg99
F5.3458681579560485
sg100
F6.27336770260513
sg101
F6.146922688675987
sg102
F5.70744245859295
sg103
F5.7144918142125105
sg104
F12.096259012192416
sg105
F11.053507422197205
sg106
F6.502875481248283
sg107
F7.946434846552313
sg108
F47.34436060978785
sg109
F7.269886655850448
sg110
F5.675604204380602
sg111
F159.9137097117636
sg112
F5.934766901422522
sg113
F5.806809719259914
sg114
F14.15433444262013
sg115
F30.635021699519157
sg116
F5.725480153184544
sg117
F6.128608704611208
sg118
F5.606158488326965
sg119
F5.479828791584928
sg120
F12.94413721638765
sg121
F11.001498045692498
sg122
F6.139624280461223
sg123
F28.31785060564043
sg124
F5.906100251117217
sg125
F5.87351457678106
sg126
F5.53391749708401
sg127
F6.503303598803636
sg128
F5.635800969125309
sg129
F7.870229785078861
sg130
F6.323864144437198
sg131
F6.114107462885386
sg132
F8.087873360734925
sg133
F546.5159122566264
sg134
F6.095267867407382
sg135
F10.52792213371774
sg136
F5.751851179970195
sg137
F12.458671606296752
sg138
F5.692517185871798
sg139
F5.799286367679049
sg140
F5.708603517607872
sg141
F22.999701142636376
sg142
F5.567260927282796
sg143
F6.47368472737258
sg144
F7.859010229688278
sg145
F6.485990850318881
sg146
F6.204342405911762
sg147
F6.137206617857163
sg148
F5.711946296564964
sg149
F5.847240998806404
sg150
F8.952315368339507
sg151
F11.039530261394942
sg152
F229.52042422295574
sg153
F60.533603167457706
sg154
F5.627170548637183
sg155
F30.73446011399624
sg156
F6.103549155323927
sg157
F5.805153423136626
sg158
F8.507579182606264
sg159
F5.855318094051943
sg160
F5.810259447888217
sg161
F24.022046954177373
sg162
F5.717223170736603
sg163
F146.6581032502462
sg164
F5.98140520482984
sg165
F11.84056605666531
sg166
F6.913867687585302
sg167
F11.012000688006243
sg168
F6.520900792133952
sg169
F7.701101697158216
sg170
F44.79623007564016
sg171
F7.354494446433806
sg172
F5.509483911353846
sg173
F5.880735455020571
sg174
F5.75783810946756
sg175
F12.655089891635788
sg176
F7.401273484014449
sg177
F5.67449927384656
sg178
F8.055384014541485
sg179
F5.8485018208005775
sg180
F7.917598415815251
sg181
F45.624907637531436
sg182
F5.901594423554957
sg183
F5.651369059964987
sg184
F175.64270432466847
sg185
F5.92111224345053
sg186
F5.752745958218532
sg187
F13.840148695202762
sg188
F5.704946166654305
sg189
F6.736102646386678
sg190
F31.646172573582398
sg191
F6.103873230784213
sg192
F5.582841497844941
sg193
F5.696475238610231
sg194
F6.126766584099322
sg195
F10.224222873083935
sg196
F6.138355428691258
sg197
F5.892559916642849
sg198
F6.237732512912331
sg199
F27.713845244511013
sg200
F7.302328204544591
sg201
F5.519663973014818
sg202
F5.616665889584899
sg203
F6.513873859809153
sg204
F5.605289224696353
sg205
F5.7050418265149
sg206
F30.758020505808666
sg207
F6.57729411539723
sg208
F5.827358438617845
sg209
F425.48682952510393
sg210
F5.703703573292812
sg211
F6.8846471858545994
sg212
F5.799412163531502
sg213
F12.202072463107685
sg214
F5.652710910741508
sg215
F7.739414872652518
sg216
F18.613682644889288
sg217
F5.5763765881329395
sg218
F6.442367028517857
sg219
F5.6001922413951615
sg220
F6.575103155392816
sg221
F39.721387528217015
sg222
F7.992577733682972
sg223
F5.825495101711954
sg224
F8.973927694692508
sg225
F5.364672391753786
sg226
F6.580456571985686
sg227
F5.686389613811192
sg228
F5.820182571279587
sg229
F7.34572758832522
sg230
F5.747783781530316
sg231
F7.871912832323622
sg232
F5.6896851594083255
sg233
F234.95937780771706
sg234
F55.491207782001766
sg235
F5.589114234407343
sg236
F5.829308370386156
sg237
F7.882537584047446
sg238
F6.170003145213388
sg239
F8.231653702076908
sg240
F5.878632328854479
sg241
F5.797010870598504
sg242
F5.730281089829403
sg243
F6.7374994017367005
sg244
F140.98425427346297
sg245
F6.013011329039615
sg246
F11.597564111944687
sg247
F5.584319178543776
sg248
F6.217974227224889
sg249
F6.556618625977121
sg250
F7.658569131207434
sg251
F5.62991320210733
sg252
F7.325366356257578
sg253
F5.5414509043722004
sg254
F5.436560745292195
sg255
F8.6182660399362
sg256
F5.795026134483174
sg257
F6.466240894841422
sg258
F5.428127084137426
sg259
F5.817197214622071
sg260
F12.371904995004712
sg261
F6.288824291896486
sg262
F5.643677193435633
sg263
F5.859486754676602
sg264
F5.8495774810190495
sg265
F6.647058818393404
sg266
F42.79877531876397
sg267
F6.045489855212471
sg268
F74.9582759761342
sg269
F5.76603878578568
sg270
F14.844052703462532
sg271
F5.2622779066035
sg272
F32.4993166714257
sg273
F5.568310941361345
sg274
F5.747647608008797
sg275
F6.080874656337542
sg276
F9.925048650790744
sg277
F5.48241442229167
sg278
F5.6609818154826215
sg279
F5.257347154864539
sg280
F27.429696910117634
sg281
F7.353857003705404
sg282
F8.140620893678722
sg283
F5.5998068721781165
sg284
F192.0066567425115
sg285
F5.580919855059681
sg286
F5.834002197875302
sg287
F5.819401721210952
sg288
F30.09294054062105
sg289
F6.85255958119564
sg290
F492.42198407831165
sg291
F6.109810351165536
sg292
F11.977862778075831
sg293
F6.649414575554375
sg294
F37.478098427363484
sg295
F5.327700148354264
sg296
F5.662693017911634
sg297
F5.997363929295914
sg298
F50.576528154142224
sg299
F6.147038190944271
sg300
F6.42655840690026
sg301
F5.624414283725274
sg302
F5.518864700651162
sg303
F36.78640857665683
sg304
F7.774033977824286
sg305
F5.783207497529517
sg306
F8.931428464875909
sg307
F6.599871933908086
sg308
F5.838694077529597
sg309
F5.828675768105336
sg310
F7.258570783292308
sg311
F6.273146861336337
sg312
F5.891217357862274
sg313
F5.9844729420216405
sg314
F7.142264493312781
sg315
F5.706323766463244
sg316
F5.701527397335281
sg317
F242.28218203563438
sg318
F5.5585077474785
sg319
F5.787484838725819
sg320
F29.869173644792685
sg321
F6.1428982600662945
sg322
F221.9176745396744
sg323
F6.062668061796981
sg324
F11.979337814403777
sg325
F5.745884268209717
sg326
F31.742150932978074
sg327
F166.26175023061342
sg328
F11.270073523906209
sg329
F6.609889646963741
sg330
F7.627238410183384
sg331
F5.610195429476908
sg332
F5.374427535516992
sg333
F5.416165273545832
sg334
F7.415078233995856
sg335
F5.512698950512589
sg336
F8.323836221708621
sg337
F5.674136756980151
sg338
F5.59687541155296
sg339
F5.837075424092305
sg340
F6.370421143322179
sg341
F5.559868506882791
sg342
F12.09433820430704
sg343
F5.495580241692052
sg344
F5.765960225797865
sg345
F5.62197576194963
sg346
F5.243115294435114
sg347
F6.562675192955291
sg348
F5.8215724721039654
sg349
F39.52626789824219
sg350
F6.113389490636738
sg351
F4.514955060283247
sg352
F88.29477084758624
sg353
F6.1117406828593275
sg354
F14.489006047658137
sg355
F5.38395029658073
sg356
F5.621163858393917
sg357
F5.716178983245408
sg358
F9.630201368213067
sg359
F5.602196399031273
sg360
F11.78666103432768
sg361
F6.680586972685408
sg362
F5.443152554553203
sg363
F7.218049991526211
sg364
F6.243706657953464
sg365
F5.745643389880235
sg366
F8.060758681689913
sg367
F5.957285247600609
sg368
F5.6399874923456395
sg369
F5.498341718335868
sg370
F5.562666155830244
sg371
F7.149778255379809
sg372
F299.12111344014255
sg373
F6.100967339646265
sg374
F5.676077523898818
sg375
F5.7718542409176266
sg376
F5.682700334207326
sg377
F39.865433147343595
sg378
F50.08246558782807
sg379
F5.934452001620109
sg380
F45.774444646022765
sg381
F5.598353705168902
sg382
F5.569963896368621
sg383
F7.580536621132269
sg384
F5.694313512546254
sg385
F5.843565055600562
sg386
F9.056508646705435
sg387
F12.142670265765789
sg388
F6.556080322939412
sg389
F5.772970936533105
sg390
F521.8039945147556
sg391
F5.465870811879175
sg392
F7.185039108838237
sg393
F6.260335119333986
sg394
F5.671499089767918
sg395
F5.601100699834158
sg396
F5.725689359136888
sg397
F7.906975663744669
sg398
F251.4652916248167
sg399
F5.535310291933388
sg400
F5.765649608325244
sg401
F5.8829972937404165
sg402
F13.022152096736901
sg403
F6.233908624671925
sg404
F5.7284330478436445
sg405
F6.110997680155632
sg406
F5.777133111398452
sg407
F29.545256914633438
sg408
F155.07543505703987
sg409
F10.839966984170893
sg410
F5.725752707654501
sg411
F6.6501425066558895
sg412
F36.505878522389864
sg413
F5.576326770478421
sg414
F5.436944051725259
sg415
F5.666214739420851
sg416
F7.388186503851668
sg417
F6.241725872862171
sg418
F4.572623489396142
sg419
F5.801336026884325
sg420
F5.943062924516976
sg421
F15.614989240465004
sg422
F5.8840212521173685
sg423
F6.290359076459765
sg424
F11.822158528684648
sg425
F5.521943497730609
sg426
F5.609359908081141
sg427
F5.640433009133552
sg428
F5.672988265286604
sg429
F8.045247462225165
sg430
F5.798806132318067
sg431
F6.689775464547888
sg432
F5.734757746887022
sg433
F5.724550406799938
sg434
F5.785208375205732
sg435
F5.9603598822404225
sg436
F7.517160136245191
sg437
F5.832006130006996
sg438
F101.88916507295029
sg439
F6.067151064119509
sg440
F7.121120806249502
sg441
F5.528015164335835
sg442
F26.748251324541844
sg443
F8.020180596787164
sg444
F5.6543362632125325
sg445
F5.737237513094575
sg446
F9.33570202536712
sg447
F5.622331942818253
sg448
F11.629206898708297
sg449
F5.614741212347102
sg450
F53.832576147530006
sg451
F5.41085596265255
sg452
F5.768348045785778
sg453
F7.268207977516442
sg454
F7.9939743781437995
sg455
F5.919808547408655
sg456
F14.74736823606065
sg457
F5.629218474696165
sg458
F7.957245711708159
sg459
F5.550508124282487
sg460
F5.87871880066244
sg461
F7.469113702106923
sg462
F361.21593698046553
sg463
F6.143188091909494
sg464
F5.980494158150744
sg465
F5.746489358541594
sg466
F5.7155396769870315
sg467
F5.834421370528766
sg468
F34.45672106470467
sg469
F6.130560848862317
sg470
F5.887150349706034
sg471
F8.423861480272844
sg472
F41.07101717263959
sg473
F5.6184954782795025
sg474
F6.642759088929865
sg475
F5.58204867664924
sg476
F5.712388439191876
sg477
F6.239125113068837
sg478
F5.675087971708729
sg479
F5.801505569890104
sg480
F9.007938779099941
sg481
F5.905853863948423
sg482
F12.366457141646817
sg483
F5.6987858514295855
sg484
F6.566658797122615
sg485
F181.64982507670913
sg486
F10.427552225187968
sg487
F7.125161292206129
sg488
F6.247652316996096
sg489
F5.109366942817066
sg490
F8.045985504261017
sg491
F5.678080356194446
sg492
F5.781968809014848
sg493
F262.4985173471198
sg494
F5.519490947481171
sg495
F5.804070664406297
sg496
F6.206234578371377
sg497
F5.86848166232778
sg498
F5.988257298115108
sg499
F27.71906750265606
sg500
F7.938444519951683
sg501
F12.93881523927829
sg502
F5.554869172870952
sg503
F33.7279960666855
sg504
F5.544222763227662
sg505
F5.29662461333809
sg506
F5.767303675357493
sg507
F7.221355324289263
sg508
F5.571358782766315
sg509
F5.327791017662657
sg510
F4.685500692803982
sg511
F5.772093777979788
sg512
F8.951236612644738
sg513
F15.219396247221512
sg514
F6.226063972060364
sg515
F8.143387658634573
sg516
F5.531694474780354
sg517
F5.561567500810583
sg518
F5.201614097769232
sg519
F5.595536344324864
sg520
F5.665443159296729
sg521
F5.710953759509148
sg522
F6.661384060884438
sg523
F5.6627519861244116
sg524
F5.9944769815738965
sg525
F115.79143258727366
sg526
F6.032246274293234
sg527
F6.88019302803723
sg528
F5.694194693931154
sg529
F27.15034456654899
sg530
F6.1821023831357715
sg531
F534.3218648421464
sg532
F5.870512355499311
sg533
F5.812865954485476
sg534
F11.554713704000699
sg535
F5.911238675145438
sg536
F11.465297562187768
sg537
F5.669290372109624
sg538
F5.6749415153572516
sg539
F57.756956709621655
sg540
F5.390644016415535
sg541
F5.73363774644455
sg542
F7.940316921720079
sg543
F5.8914676767677685
sg544
F13.639487716181954
sg545
F5.901220730417456
sg546
F227.12531727782044
sg547
F5.544432437431013
sg548
F5.839151738343224
sg549
F5.742030788933745
sg550
F5.281109635976311
sg551
F5.704037125844967
sg552
F6.123893114493571
sg553
F5.937989625482188
sg554
F5.722027512174982
sg555
F35.67545780746403
sg556
F7.907069784800188
sg557
F5.855491372423523
sg558
F8.680879869502572
sg559
F36.453359901990055
sg560
F5.644766470544601
sg561
F6.593431129947292
sg562
F6.087787259478934
sg563
F5.61178082666145
sg564
F5.811716985006613
sg565
F12.522657731257448
sg566
F5.685398921423408
sg567
F5.727409218490174
sg568
F8.2006900518494
sg569
F176.67423481887354
sg570
F5.735401689794979
sg571
F10.032689597021589
sg572
F7.078998138534488
sg573
F5.15670848102166
sg574
F7.927493467386525
sg575
F5.528193996969485
sg576
F5.736918513723441
sg577
F5.793124571735165
sg578
F5.50240415675925
sg579
F13.546594432871458
sg580
F6.02174832514471
sg581
F7.462030431427392
sg582
F5.285849506544935
sg583
F26.255631861958992
sg584
F6.184638742403627
sg585
F5.654232198291781
sg586
F12.64543232634042
sg587
F5.804417001811103
sg588
F5.57067439043684
sg589
F31.645092969532644
sg590
F5.547851659208084
sg591
F5.515728248972428
sg592
F7.1687829684747175
sg593
F5.631996957112169
sg594
F4.852890423307362
sg595
F130.05589070883752
sg596
F5.7517967817203255
sg597
F5.656929547053513
sg598
F16.274747976782233
sg599
F6.177593212839774
sg600
F226.08611889375877
sg601
F5.614547406538299
sg602
F5.701305551128235
sg603
F5.605369248090486
sg604
F5.5890388257403005
sg605
F7.599599567613552
sg606
F6.001172032458146
sg607
F5.882296029078791
sg608
F27.934942283854173
sg609
F6.150912332722791
sg610
F526.0510518665084
sg611
F11.149737615388354
sg612
F5.687672471379795
sg613
F11.29415336721537
sg614
F8.112770609207878
sg615
F61.86184920960337
sg616
F5.839554129935987
sg617
F5.375254081624657
sg618
F5.705941053301626
sg619
F7.181363601676816
sg620
F5.166825265610286
sg621
F31.909529551656956
sg622
F7.89986244598311
sg623
F5.872514122883183
sg624
F5.563924783670369
sg625
F6.665296184915826
sg626
F5.736305628643383
sg627
F5.633812473455331
sg628
F138.0750799185835
sg629
F5.673625630033176
sg630
F5.91376392823809
sg631
F5.683859257896212
sg632
F6.1577955510088875
sg633
F7.953108635050572
sg634
F5.677195341001057
sg635
F6.5542207924721225
sg636
F7.927611820647765
sg637
F5.628761893112194
sg638
F5.91341924755752
sg639
F5.763246962391584
sg640
F12.754322115635889
sa.